Archive member included because of file (symbol)

c:/program files (x86)/gnu tools arm embedded/4.8 2014q2/bin/../lib/gcc/arm-none-eabi/4.8.4/armv7e-m\libgcc.a(_arm_addsubdf3.o)
                              ..\obj\tm_stm32f4_pwm.o (__aeabi_ui2d)
c:/program files (x86)/gnu tools arm embedded/4.8 2014q2/bin/../lib/gcc/arm-none-eabi/4.8.4/armv7e-m\libgcc.a(_arm_muldivdf3.o)
                              ..\obj\tm_stm32f4_pwm.o (__aeabi_ddiv)
c:/program files (x86)/gnu tools arm embedded/4.8 2014q2/bin/../lib/gcc/arm-none-eabi/4.8.4/armv7e-m\libgcc.a(_arm_cmpdf2.o)
                              ..\obj\tm_stm32f4_pwm.o (__aeabi_dcmpeq)
c:/program files (x86)/gnu tools arm embedded/4.8 2014q2/bin/../lib/gcc/arm-none-eabi/4.8.4/armv7e-m\libgcc.a(_arm_fixunsdfsi.o)
                              ..\obj\tm_stm32f4_pwm.o (__aeabi_d2uiz)
c:/program files (x86)/gnu tools arm embedded/4.8 2014q2/bin/../lib/gcc/arm-none-eabi/4.8.4/armv7e-m\libgcc.a(_arm_addsubsf3.o)
                              ..\obj\tm_stm32f4_servo.o (__aeabi_fadd)
c:/program files (x86)/gnu tools arm embedded/4.8 2014q2/bin/../lib/gcc/arm-none-eabi/4.8.4/armv7e-m\libgcc.a(_arm_muldivsf3.o)
                              ..\obj\tm_stm32f4_servo.o (__aeabi_fmul)
c:/program files (x86)/gnu tools arm embedded/4.8 2014q2/bin/../lib/gcc/arm-none-eabi/4.8.4/armv7e-m\libgcc.a(_arm_cmpsf2.o)
                              ..\obj\tm_stm32f4_servo.o (__aeabi_fcmplt)
c:/program files (x86)/gnu tools arm embedded/4.8 2014q2/bin/../lib/gcc/arm-none-eabi/4.8.4/armv7e-m\libgcc.a(_arm_fixunssfsi.o)
                              ..\obj\tm_stm32f4_servo.o (__aeabi_f2uiz)
c:/program files (x86)/gnu tools arm embedded/4.8 2014q2/bin/../lib/gcc/arm-none-eabi/4.8.4/../../../../arm-none-eabi/lib/armv7e-m\libg.a(lib_a-malloc.o)
                              ..\obj\tm_stm32f4_delay.o (malloc)
c:/program files (x86)/gnu tools arm embedded/4.8 2014q2/bin/../lib/gcc/arm-none-eabi/4.8.4/../../../../arm-none-eabi/lib/armv7e-m\libg.a(lib_a-mallocr.o)
                              c:/program files (x86)/gnu tools arm embedded/4.8 2014q2/bin/../lib/gcc/arm-none-eabi/4.8.4/../../../../arm-none-eabi/lib/armv7e-m\libg.a(lib_a-malloc.o) (_malloc_r)
c:/program files (x86)/gnu tools arm embedded/4.8 2014q2/bin/../lib/gcc/arm-none-eabi/4.8.4/../../../../arm-none-eabi/lib/armv7e-m\libg.a(lib_a-memset.o)
                              ..\obj\uart.o (memset)
c:/program files (x86)/gnu tools arm embedded/4.8 2014q2/bin/../lib/gcc/arm-none-eabi/4.8.4/../../../../arm-none-eabi/lib/armv7e-m\libg.a(lib_a-mlock.o)
                              c:/program files (x86)/gnu tools arm embedded/4.8 2014q2/bin/../lib/gcc/arm-none-eabi/4.8.4/../../../../arm-none-eabi/lib/armv7e-m\libg.a(lib_a-mallocr.o) (__malloc_lock)
c:/program files (x86)/gnu tools arm embedded/4.8 2014q2/bin/../lib/gcc/arm-none-eabi/4.8.4/../../../../arm-none-eabi/lib/armv7e-m\libg.a(lib_a-sbrkr.o)
                              c:/program files (x86)/gnu tools arm embedded/4.8 2014q2/bin/../lib/gcc/arm-none-eabi/4.8.4/../../../../arm-none-eabi/lib/armv7e-m\libg.a(lib_a-mallocr.o) (_sbrk_r)
c:/program files (x86)/gnu tools arm embedded/4.8 2014q2/bin/../lib/gcc/arm-none-eabi/4.8.4/../../../../arm-none-eabi/lib/armv7e-m\libg.a(lib_a-freer.o)
                              c:/program files (x86)/gnu tools arm embedded/4.8 2014q2/bin/../lib/gcc/arm-none-eabi/4.8.4/../../../../arm-none-eabi/lib/armv7e-m\libg.a(lib_a-malloc.o) (_free_r)
c:/program files (x86)/gnu tools arm embedded/4.8 2014q2/bin/../lib/gcc/arm-none-eabi/4.8.4/../../../../arm-none-eabi/lib/armv7e-m\libg.a(lib_a-reent.o)
                              c:/program files (x86)/gnu tools arm embedded/4.8 2014q2/bin/../lib/gcc/arm-none-eabi/4.8.4/../../../../arm-none-eabi/lib/armv7e-m\libg.a(lib_a-sbrkr.o) (errno)

Allocating common symbols
Common symbol       size              file

I2C2_DATA           0xa               ..\obj\main.o
errno               0x4               c:/program files (x86)/gnu tools arm embedded/4.8 2014q2/bin/../lib/gcc/arm-none-eabi/4.8.4/../../../../arm-none-eabi/lib/armv7e-m\libg.a(lib_a-reent.o)
temperature         0x14              ..\obj\main.o
servo1              0x38              ..\obj\main.o
mult                0x4               ..\obj\tm_stm32f4_delay.o
UART_RX             0x38              ..\obj\uart.o

Discarded input sections

 .text          0x00000000        0x0 ..\obj\stm32f4xx_syscfg.o
 .data          0x00000000        0x0 ..\obj\stm32f4xx_syscfg.o
 .bss           0x00000000        0x0 ..\obj\stm32f4xx_syscfg.o
 .text.SYSCFG_DeInit
                0x00000000       0x1c ..\obj\stm32f4xx_syscfg.o
 .text.SYSCFG_MemoryRemapConfig
                0x00000000       0x20 ..\obj\stm32f4xx_syscfg.o
 .text.SYSCFG_EXTILineConfig
                0x00000000       0x7c ..\obj\stm32f4xx_syscfg.o
 .text.SYSCFG_ETH_MediaInterfaceConfig
                0x00000000       0x1c ..\obj\stm32f4xx_syscfg.o
 .text.SYSCFG_CompensationCellCmd
                0x00000000       0x20 ..\obj\stm32f4xx_syscfg.o
 .text.SYSCFG_GetCompensationCellStatus
                0x00000000       0x34 ..\obj\stm32f4xx_syscfg.o
 .debug_info    0x00000000      0x26c ..\obj\stm32f4xx_syscfg.o
 .debug_abbrev  0x00000000      0x131 ..\obj\stm32f4xx_syscfg.o
 .debug_aranges
                0x00000000       0x48 ..\obj\stm32f4xx_syscfg.o
 .debug_ranges  0x00000000       0x38 ..\obj\stm32f4xx_syscfg.o
 .debug_line    0x00000000      0x241 ..\obj\stm32f4xx_syscfg.o
 .debug_str     0x00000000      0x2fd ..\obj\stm32f4xx_syscfg.o
 .comment       0x00000000       0x71 ..\obj\stm32f4xx_syscfg.o
 .ARM.attributes
                0x00000000       0x33 ..\obj\stm32f4xx_syscfg.o
 .debug_frame   0x00000000       0xbc ..\obj\stm32f4xx_syscfg.o
 .text          0x00000000        0x0 ..\obj\tm_stm32f4_servo.o
 .data          0x00000000        0x0 ..\obj\tm_stm32f4_servo.o
 .bss           0x00000000        0x0 ..\obj\tm_stm32f4_servo.o
 .text.TM_SERVO_SetMicros
                0x00000000       0x78 ..\obj\tm_stm32f4_servo.o
 .text          0x00000000        0x0 ..\obj\stm32f4xx_usart.o
 .data          0x00000000        0x0 ..\obj\stm32f4xx_usart.o
 .bss           0x00000000        0x0 ..\obj\stm32f4xx_usart.o
 .text.USART_DeInit
                0x00000000       0xd0 ..\obj\stm32f4xx_usart.o
 .text.USART_StructInit
                0x00000000       0x38 ..\obj\stm32f4xx_usart.o
 .text.USART_ClockInit
                0x00000000       0x54 ..\obj\stm32f4xx_usart.o
 .text.USART_ClockStructInit
                0x00000000       0x2c ..\obj\stm32f4xx_usart.o
 .text.USART_SetPrescaler
                0x00000000       0x38 ..\obj\stm32f4xx_usart.o
 .text.USART_OneBitMethodCmd
                0x00000000       0x40 ..\obj\stm32f4xx_usart.o
 .text.USART_SendData
                0x00000000       0x24 ..\obj\stm32f4xx_usart.o
 .text.USART_SetAddress
                0x00000000       0x38 ..\obj\stm32f4xx_usart.o
 .text.USART_ReceiverWakeUpCmd
                0x00000000       0x40 ..\obj\stm32f4xx_usart.o
 .text.USART_WakeUpConfig
                0x00000000       0x38 ..\obj\stm32f4xx_usart.o
 .text.USART_LINBreakDetectLengthConfig
                0x00000000       0x38 ..\obj\stm32f4xx_usart.o
 .text.USART_LINCmd
                0x00000000       0x40 ..\obj\stm32f4xx_usart.o
 .text.USART_SendBreak
                0x00000000       0x24 ..\obj\stm32f4xx_usart.o
 .text.USART_HalfDuplexCmd
                0x00000000       0x40 ..\obj\stm32f4xx_usart.o
 .text.USART_SetGuardTime
                0x00000000       0x3c ..\obj\stm32f4xx_usart.o
 .text.USART_SmartCardCmd
                0x00000000       0x40 ..\obj\stm32f4xx_usart.o
 .text.USART_SmartCardNACKCmd
                0x00000000       0x40 ..\obj\stm32f4xx_usart.o
 .text.USART_IrDAConfig
                0x00000000       0x38 ..\obj\stm32f4xx_usart.o
 .text.USART_IrDACmd
                0x00000000       0x40 ..\obj\stm32f4xx_usart.o
 .text.USART_DMACmd
                0x00000000       0x48 ..\obj\stm32f4xx_usart.o
 .text.USART_GetFlagStatus
                0x00000000       0x38 ..\obj\stm32f4xx_usart.o
 .text.USART_ClearFlag
                0x00000000       0x20 ..\obj\stm32f4xx_usart.o
 .text.USART_ClearITPendingBit
                0x00000000       0x38 ..\obj\stm32f4xx_usart.o
 .text          0x00000000        0x0 ..\obj\stm32f4xx_pwr.o
 .data          0x00000000        0x0 ..\obj\stm32f4xx_pwr.o
 .bss           0x00000000        0x0 ..\obj\stm32f4xx_pwr.o
 .text.PWR_DeInit
                0x00000000       0x1c ..\obj\stm32f4xx_pwr.o
 .text.PWR_BackupAccessCmd
                0x00000000       0x20 ..\obj\stm32f4xx_pwr.o
 .text.PWR_PVDLevelConfig
                0x00000000       0x38 ..\obj\stm32f4xx_pwr.o
 .text.PWR_PVDCmd
                0x00000000       0x20 ..\obj\stm32f4xx_pwr.o
 .text.PWR_WakeUpPinCmd
                0x00000000       0x20 ..\obj\stm32f4xx_pwr.o
 .text.PWR_BackupRegulatorCmd
                0x00000000       0x20 ..\obj\stm32f4xx_pwr.o
 .text.PWR_MainRegulatorModeConfig
                0x00000000       0x38 ..\obj\stm32f4xx_pwr.o
 .text.PWR_FlashPowerDownCmd
                0x00000000       0x20 ..\obj\stm32f4xx_pwr.o
 .text.PWR_EnterSTOPMode
                0x00000000       0x64 ..\obj\stm32f4xx_pwr.o
 .text.PWR_EnterSTANDBYMode
                0x00000000       0x3c ..\obj\stm32f4xx_pwr.o
 .text.PWR_GetFlagStatus
                0x00000000       0x34 ..\obj\stm32f4xx_pwr.o
 .text.PWR_ClearFlag
                0x00000000       0x24 ..\obj\stm32f4xx_pwr.o
 .debug_info    0x00000000      0x4fc ..\obj\stm32f4xx_pwr.o
 .debug_abbrev  0x00000000      0x17f ..\obj\stm32f4xx_pwr.o
 .debug_aranges
                0x00000000       0x78 ..\obj\stm32f4xx_pwr.o
 .debug_ranges  0x00000000       0x68 ..\obj\stm32f4xx_pwr.o
 .debug_line    0x00000000      0x2df ..\obj\stm32f4xx_pwr.o
 .debug_str     0x00000000      0x39a ..\obj\stm32f4xx_pwr.o
 .comment       0x00000000       0x71 ..\obj\stm32f4xx_pwr.o
 .ARM.attributes
                0x00000000       0x33 ..\obj\stm32f4xx_pwr.o
 .debug_frame   0x00000000      0x15c ..\obj\stm32f4xx_pwr.o
 .text          0x00000000        0x0 ..\obj\uart.o
 .bss           0x00000000        0x0 ..\obj\uart.o
 .text.uartSendByte
                0x00000000       0x58 ..\obj\uart.o
 .text.uartSendString
                0x00000000       0x90 ..\obj\uart.o
 .text.uartReceiveString
                0x00000000      0x160 ..\obj\uart.o
 .text.uartGetByte
                0x00000000       0xc8 ..\obj\uart.o
 .text.uartFlush
                0x00000000       0x54 ..\obj\uart.o
 .text.uartSendArray
                0x00000000       0x44 ..\obj\uart.o
 .text.uartReceiveArray
                0x00000000       0xac ..\obj\uart.o
 .text          0x00000000        0x0 ..\obj\startup_stm32f4xx.o
 .data          0x00000000        0x0 ..\obj\startup_stm32f4xx.o
 .bss           0x00000000        0x0 ..\obj\startup_stm32f4xx.o
 .text          0x00000000        0x0 ..\obj\main.o
 .text          0x00000000        0x0 ..\obj\stm32f4xx_rcc.o
 .bss           0x00000000        0x0 ..\obj\stm32f4xx_rcc.o
 .text.RCC_DeInit
                0x00000000       0x50 ..\obj\stm32f4xx_rcc.o
 .text.RCC_HSEConfig
                0x00000000       0x24 ..\obj\stm32f4xx_rcc.o
 .text.RCC_WaitForHSEStartUp
                0x00000000       0x50 ..\obj\stm32f4xx_rcc.o
 .text.RCC_AdjustHSICalibrationValue
                0x00000000       0x3c ..\obj\stm32f4xx_rcc.o
 .text.RCC_HSICmd
                0x00000000       0x20 ..\obj\stm32f4xx_rcc.o
 .text.RCC_LSEConfig
                0x00000000       0x40 ..\obj\stm32f4xx_rcc.o
 .text.RCC_LSICmd
                0x00000000       0x20 ..\obj\stm32f4xx_rcc.o
 .text.RCC_PLLConfig
                0x00000000       0x3c ..\obj\stm32f4xx_rcc.o
 .text.RCC_PLLCmd
                0x00000000       0x20 ..\obj\stm32f4xx_rcc.o
 .text.RCC_PLLI2SConfig
                0x00000000       0x28 ..\obj\stm32f4xx_rcc.o
 .text.RCC_PLLI2SCmd
                0x00000000       0x20 ..\obj\stm32f4xx_rcc.o
 .text.RCC_ClockSecuritySystemCmd
                0x00000000       0x20 ..\obj\stm32f4xx_rcc.o
 .text.RCC_MCO1Config
                0x00000000       0x3c ..\obj\stm32f4xx_rcc.o
 .text.RCC_MCO2Config
                0x00000000       0x3c ..\obj\stm32f4xx_rcc.o
 .text.RCC_SYSCLKConfig
                0x00000000       0x38 ..\obj\stm32f4xx_rcc.o
 .text.RCC_GetSYSCLKSource
                0x00000000       0x20 ..\obj\stm32f4xx_rcc.o
 .text.RCC_HCLKConfig
                0x00000000       0x38 ..\obj\stm32f4xx_rcc.o
 .text.RCC_PCLK1Config
                0x00000000       0x38 ..\obj\stm32f4xx_rcc.o
 .text.RCC_PCLK2Config
                0x00000000       0x38 ..\obj\stm32f4xx_rcc.o
 .text.RCC_RTCCLKConfig
                0x00000000       0x5c ..\obj\stm32f4xx_rcc.o
 .text.RCC_RTCCLKCmd
                0x00000000       0x20 ..\obj\stm32f4xx_rcc.o
 .text.RCC_BackupResetCmd
                0x00000000       0x20 ..\obj\stm32f4xx_rcc.o
 .text.RCC_I2SCLKConfig
                0x00000000       0x1c ..\obj\stm32f4xx_rcc.o
 .text.RCC_AHB2PeriphClockCmd
                0x00000000       0x3c ..\obj\stm32f4xx_rcc.o
 .text.RCC_AHB3PeriphClockCmd
                0x00000000       0x3c ..\obj\stm32f4xx_rcc.o
 .text.RCC_AHB1PeriphResetCmd
                0x00000000       0x3c ..\obj\stm32f4xx_rcc.o
 .text.RCC_AHB2PeriphResetCmd
                0x00000000       0x3c ..\obj\stm32f4xx_rcc.o
 .text.RCC_AHB3PeriphResetCmd
                0x00000000       0x3c ..\obj\stm32f4xx_rcc.o
 .text.RCC_APB2PeriphResetCmd
                0x00000000       0x3c ..\obj\stm32f4xx_rcc.o
 .text.RCC_AHB1PeriphClockLPModeCmd
                0x00000000       0x3c ..\obj\stm32f4xx_rcc.o
 .text.RCC_AHB2PeriphClockLPModeCmd
                0x00000000       0x3c ..\obj\stm32f4xx_rcc.o
 .text.RCC_AHB3PeriphClockLPModeCmd
                0x00000000       0x3c ..\obj\stm32f4xx_rcc.o
 .text.RCC_APB1PeriphClockLPModeCmd
                0x00000000       0x3c ..\obj\stm32f4xx_rcc.o
 .text.RCC_APB2PeriphClockLPModeCmd
                0x00000000       0x3c ..\obj\stm32f4xx_rcc.o
 .text.RCC_ITConfig
                0x00000000       0x48 ..\obj\stm32f4xx_rcc.o
 .text.RCC_GetFlagStatus
                0x00000000       0x74 ..\obj\stm32f4xx_rcc.o
 .text.RCC_ClearFlag
                0x00000000       0x1c ..\obj\stm32f4xx_rcc.o
 .text.RCC_GetITStatus
                0x00000000       0x38 ..\obj\stm32f4xx_rcc.o
 .text.RCC_ClearITPendingBit
                0x00000000       0x20 ..\obj\stm32f4xx_rcc.o
 .text          0x00000000        0x0 ..\obj\stm32f4xx_adc.o
 .data          0x00000000        0x0 ..\obj\stm32f4xx_adc.o
 .bss           0x00000000        0x0 ..\obj\stm32f4xx_adc.o
 .text.ADC_DeInit
                0x00000000       0x1c ..\obj\stm32f4xx_adc.o
 .text.ADC_StructInit
                0x00000000       0x3c ..\obj\stm32f4xx_adc.o
 .text.ADC_CommonStructInit
                0x00000000       0x2c ..\obj\stm32f4xx_adc.o
 .text.ADC_AnalogWatchdogCmd
                0x00000000       0x38 ..\obj\stm32f4xx_adc.o
 .text.ADC_AnalogWatchdogThresholdsConfig
                0x00000000       0x28 ..\obj\stm32f4xx_adc.o
 .text.ADC_AnalogWatchdogSingleChannelConfig
                0x00000000       0x38 ..\obj\stm32f4xx_adc.o
 .text.ADC_TempSensorVrefintCmd
                0x00000000       0x38 ..\obj\stm32f4xx_adc.o
 .text.ADC_VBATCmd
                0x00000000       0x38 ..\obj\stm32f4xx_adc.o
 .text.ADC_GetSoftwareStartConvStatus
                0x00000000       0x30 ..\obj\stm32f4xx_adc.o
 .text.ADC_EOCOnEachRegularChannelCmd
                0x00000000       0x38 ..\obj\stm32f4xx_adc.o
 .text.ADC_ContinuousModeCmd
                0x00000000       0x38 ..\obj\stm32f4xx_adc.o
 .text.ADC_DiscModeChannelCountConfig
                0x00000000       0x44 ..\obj\stm32f4xx_adc.o
 .text.ADC_DiscModeCmd
                0x00000000       0x38 ..\obj\stm32f4xx_adc.o
 .text.ADC_GetMultiModeConversionValue
                0x00000000       0x18 ..\obj\stm32f4xx_adc.o
 .text.ADC_DMACmd
                0x00000000       0x38 ..\obj\stm32f4xx_adc.o
 .text.ADC_DMARequestAfterLastTransferCmd
                0x00000000       0x38 ..\obj\stm32f4xx_adc.o
 .text.ADC_MultiModeDMARequestAfterLastTransferCmd
                0x00000000       0x38 ..\obj\stm32f4xx_adc.o
 .text.ADC_InjectedChannelConfig
                0x00000000      0x114 ..\obj\stm32f4xx_adc.o
 .text.ADC_InjectedSequencerLengthConfig
                0x00000000       0x44 ..\obj\stm32f4xx_adc.o
 .text.ADC_SetInjectedOffset
                0x00000000       0x30 ..\obj\stm32f4xx_adc.o
 .text.ADC_ExternalTrigInjectedConvConfig
                0x00000000       0x34 ..\obj\stm32f4xx_adc.o
 .text.ADC_ExternalTrigInjectedConvEdgeConfig
                0x00000000       0x34 ..\obj\stm32f4xx_adc.o
 .text.ADC_SoftwareStartInjectedConv
                0x00000000       0x20 ..\obj\stm32f4xx_adc.o
 .text.ADC_GetSoftwareStartInjectedConvCmdStatus
                0x00000000       0x30 ..\obj\stm32f4xx_adc.o
 .text.ADC_AutoInjectedConvCmd
                0x00000000       0x38 ..\obj\stm32f4xx_adc.o
 .text.ADC_InjectedDiscModeCmd
                0x00000000       0x38 ..\obj\stm32f4xx_adc.o
 .text.ADC_GetInjectedConversionValue
                0x00000000       0x30 ..\obj\stm32f4xx_adc.o
 .text.ADC_ITConfig
                0x00000000       0x50 ..\obj\stm32f4xx_adc.o
 .text.ADC_ClearFlag
                0x00000000       0x20 ..\obj\stm32f4xx_adc.o
 .text.ADC_GetITStatus
                0x00000000       0x5c ..\obj\stm32f4xx_adc.o
 .text.ADC_ClearITPendingBit
                0x00000000       0x2c ..\obj\stm32f4xx_adc.o
 .text          0x00000000        0x0 ..\obj\printf.o
 .data          0x00000000      0x430 ..\obj\printf.o
 .bss           0x00000000        0x0 ..\obj\printf.o
 .text.PrintChar
                0x00000000       0x14 ..\obj\printf.o
 .text.PutChar  0x00000000       0x20 ..\obj\printf.o
 .text.PutString
                0x00000000       0x3c ..\obj\printf.o
 .text.PutUnsignedInt
                0x00000000       0xa0 ..\obj\printf.o
 .text.PutSignedInt
                0x00000000       0xfc ..\obj\printf.o
 .text.PutHexa  0x00000000       0xd4 ..\obj\printf.o
 .text.vsnprintf
                0x00000000      0x254 ..\obj\printf.o
 .text.snprintf
                0x00000000       0x30 ..\obj\printf.o
 .text.vsprintf
                0x00000000       0x24 ..\obj\printf.o
 .rodata        0x00000000       0x24 ..\obj\printf.o
 .text.vfprintf
                0x00000000       0x68 ..\obj\printf.o
 .text.vprintf  0x00000000       0x28 ..\obj\printf.o
 .text.fprintf  0x00000000       0x2c ..\obj\printf.o
 .text.printf   0x00000000       0x28 ..\obj\printf.o
 .text.sprintf  0x00000000       0x2c ..\obj\printf.o
 .text.puts     0x00000000       0x24 ..\obj\printf.o
 .text.fputc    0x00000000       0x40 ..\obj\printf.o
 .text.fputs    0x00000000       0x48 ..\obj\printf.o
 .debug_info    0x00000000      0xe38 ..\obj\printf.o
 .debug_abbrev  0x00000000      0x27e ..\obj\printf.o
 .debug_aranges
                0x00000000       0xa0 ..\obj\printf.o
 .debug_ranges  0x00000000       0x90 ..\obj\printf.o
 .debug_line    0x00000000      0x3a1 ..\obj\printf.o
 .debug_str     0x00000000      0x680 ..\obj\printf.o
 .comment       0x00000000       0x71 ..\obj\printf.o
 .ARM.attributes
                0x00000000       0x33 ..\obj\printf.o
 .debug_frame   0x00000000      0x244 ..\obj\printf.o
 .text          0x00000000        0x0 ..\obj\tm_stm32f4_delay.o
 .data          0x00000000        0x0 ..\obj\tm_stm32f4_delay.o
 .text.TM_DELAY_EnableDelayTimer
                0x00000000       0x2c ..\obj\tm_stm32f4_delay.o
 .text.TM_DELAY_DisableDelayTimer
                0x00000000       0x1c ..\obj\tm_stm32f4_delay.o
 .text.TM_DELAY_TimerCreate
                0x00000000       0x7c ..\obj\tm_stm32f4_delay.o
 .text.TM_DELAY_TimerDelete
                0x00000000       0xa4 ..\obj\tm_stm32f4_delay.o
 .text.TM_DELAY_TimerStop
                0x00000000       0x1c ..\obj\tm_stm32f4_delay.o
 .text.TM_DELAY_TimerStart
                0x00000000       0x1c ..\obj\tm_stm32f4_delay.o
 .text.TM_DELAY_TimerReset
                0x00000000       0x20 ..\obj\tm_stm32f4_delay.o
 .text.TM_DELAY_TimerAutoReload
                0x00000000       0x20 ..\obj\tm_stm32f4_delay.o
 .text.TM_DELAY_TimerAutoReloadValue
                0x00000000       0x20 ..\obj\tm_stm32f4_delay.o
 .text          0x00000000        0x0 ..\obj\tm_stm32f4_onewire.o
 .data          0x00000000        0x0 ..\obj\tm_stm32f4_onewire.o
 .bss           0x00000000        0x0 ..\obj\tm_stm32f4_onewire.o
 .text.Delay    0x00000000       0x5c ..\obj\tm_stm32f4_onewire.o
 .text.TM_OneWire_Reset
                0x00000000       0x6c ..\obj\tm_stm32f4_onewire.o
 .text.TM_OneWire_WriteBit
                0x00000000       0xa8 ..\obj\tm_stm32f4_onewire.o
 .text.TM_OneWire_ReadBit
                0x00000000       0x68 ..\obj\tm_stm32f4_onewire.o
 .text.TM_OneWire_WriteByte
                0x00000000       0x38 ..\obj\tm_stm32f4_onewire.o
 .text.TM_OneWire_ReadByte
                0x00000000       0x40 ..\obj\tm_stm32f4_onewire.o
 .text.TM_OneWire_First
                0x00000000       0x20 ..\obj\tm_stm32f4_onewire.o
 .text.TM_OneWire_Next
                0x00000000       0x1c ..\obj\tm_stm32f4_onewire.o
 .text.TM_OneWire_ResetSearch
                0x00000000       0x24 ..\obj\tm_stm32f4_onewire.o
 .text.TM_OneWire_Search
                0x00000000      0x188 ..\obj\tm_stm32f4_onewire.o
 .text.TM_OneWire_Verify
                0x00000000       0xe0 ..\obj\tm_stm32f4_onewire.o
 .text.TM_OneWire_TargetSetup
                0x00000000       0x4c ..\obj\tm_stm32f4_onewire.o
 .text.TM_OneWire_FamilySkipSetup
                0x00000000       0x30 ..\obj\tm_stm32f4_onewire.o
 .text.TM_OneWire_GetROM
                0x00000000       0x20 ..\obj\tm_stm32f4_onewire.o
 .text.TM_OneWire_Select
                0x00000000       0x3c ..\obj\tm_stm32f4_onewire.o
 .text.TM_OneWire_SelectWithPointer
                0x00000000       0x3c ..\obj\tm_stm32f4_onewire.o
 .text.TM_OneWire_GetFullROM
                0x00000000       0x38 ..\obj\tm_stm32f4_onewire.o
 .text.TM_OneWire_CRC8
                0x00000000       0x70 ..\obj\tm_stm32f4_onewire.o
 .text          0x00000000        0x0 ..\obj\stm32f4xx_gpio.o
 .data          0x00000000        0x0 ..\obj\stm32f4xx_gpio.o
 .bss           0x00000000        0x0 ..\obj\stm32f4xx_gpio.o
 .text.GPIO_DeInit
                0x00000000      0x120 ..\obj\stm32f4xx_gpio.o
 .text.GPIO_StructInit
                0x00000000       0x34 ..\obj\stm32f4xx_gpio.o
 .text.GPIO_PinLockConfig
                0x00000000       0x44 ..\obj\stm32f4xx_gpio.o
 .text.GPIO_ReadInputDataBit
                0x00000000       0x34 ..\obj\stm32f4xx_gpio.o
 .text.GPIO_ReadInputData
                0x00000000       0x1c ..\obj\stm32f4xx_gpio.o
 .text.GPIO_ReadOutputDataBit
                0x00000000       0x34 ..\obj\stm32f4xx_gpio.o
 .text.GPIO_ReadOutputData
                0x00000000       0x1c ..\obj\stm32f4xx_gpio.o
 .text.GPIO_SetBits
                0x00000000       0x1c ..\obj\stm32f4xx_gpio.o
 .text.GPIO_ResetBits
                0x00000000       0x1c ..\obj\stm32f4xx_gpio.o
 .text.GPIO_WriteBit
                0x00000000       0x30 ..\obj\stm32f4xx_gpio.o
 .text.GPIO_Write
                0x00000000       0x1c ..\obj\stm32f4xx_gpio.o
 .text.GPIO_ToggleBits
                0x00000000       0x24 ..\obj\stm32f4xx_gpio.o
 .text          0x00000000        0x0 ..\obj\system_stm32f4xx.o
 .bss           0x00000000        0x0 ..\obj\system_stm32f4xx.o
 .text.SystemInit
                0x00000000       0x58 ..\obj\system_stm32f4xx.o
 .text.SystemCoreClockUpdate
                0x00000000       0xf8 ..\obj\system_stm32f4xx.o
 .text.SetSysClock
                0x00000000       0xf4 ..\obj\system_stm32f4xx.o
 .text          0x00000000        0x0 ..\obj\syscalls.o
 .data          0x00000000        0x0 ..\obj\syscalls.o
 .bss           0x00000000        0x4 ..\obj\syscalls.o
 .text._sbrk    0x00000000       0x40 ..\obj\syscalls.o
 .text.link     0x00000000       0x1c ..\obj\syscalls.o
 .text._close   0x00000000       0x18 ..\obj\syscalls.o
 .text._fstat   0x00000000       0x20 ..\obj\syscalls.o
 .text._isatty  0x00000000       0x18 ..\obj\syscalls.o
 .text._lseek   0x00000000       0x1c ..\obj\syscalls.o
 .text._read    0x00000000       0x1c ..\obj\syscalls.o
 .text._write   0x00000000       0x1c ..\obj\syscalls.o
 .text.abort    0x00000000        0x8 ..\obj\syscalls.o
 .debug_info    0x00000000      0x3ee ..\obj\syscalls.o
 .debug_abbrev  0x00000000       0xe2 ..\obj\syscalls.o
 .debug_aranges
                0x00000000       0x60 ..\obj\syscalls.o
 .debug_ranges  0x00000000       0x50 ..\obj\syscalls.o
 .debug_line    0x00000000      0x17c ..\obj\syscalls.o
 .debug_str     0x00000000      0x2f1 ..\obj\syscalls.o
 .comment       0x00000000       0x71 ..\obj\syscalls.o
 .ARM.attributes
                0x00000000       0x33 ..\obj\syscalls.o
 .debug_frame   0x00000000      0x108 ..\obj\syscalls.o
 .text          0x00000000        0x0 ..\obj\srf_tpa.o
 .bss           0x00000000       0x18 ..\obj\srf_tpa.o
 .text.median   0x00000000       0xbc ..\obj\srf_tpa.o
 .text.sonarSetRange
                0x00000000       0x54 ..\obj\srf_tpa.o
 .text.sonarSetGain
                0x00000000       0x38 ..\obj\srf_tpa.o
 .text.srfAddressing
                0x00000000       0x48 ..\obj\srf_tpa.o
 .text.tpaSetServo
                0x00000000       0x28 ..\obj\srf_tpa.o
 .text.tpaRead  0x00000000       0x28 ..\obj\srf_tpa.o
 .text.getTpa81
                0x00000000       0x50 ..\obj\srf_tpa.o
 .text.tpaScanGetPosition
                0x00000000       0xd8 ..\obj\srf_tpa.o
 .text.tpaCheckDelayMs
                0x00000000      0x108 ..\obj\srf_tpa.o
 .text.tpa81ResetValue
                0x00000000       0x5c ..\obj\srf_tpa.o
 .text          0x00000000        0x0 ..\obj\tm_stm32f4_pwm.o
 .data          0x00000000        0x0 ..\obj\tm_stm32f4_pwm.o
 .bss           0x00000000        0x0 ..\obj\tm_stm32f4_pwm.o
 .text.TM_PWM_SetChannelPercent
                0x00000000       0x98 ..\obj\tm_stm32f4_pwm.o
 .text          0x00000000        0x0 ..\obj\lcd.o
 .data          0x00000000       0x78 ..\obj\lcd.o
 .bss           0x00000000        0xc ..\obj\lcd.o
 .text.lcd_init
                0x00000000       0x74 ..\obj\lcd.o
 .text.lcd_clear
                0x00000000       0x14 ..\obj\lcd.o
 .text.UB_LCD_2x16_SetMode
                0x00000000       0x40 ..\obj\lcd.o
 .text.lcd_putsf
                0x00000000       0x3c ..\obj\lcd.o
 .text.P_LCD_2x16_InitIO
                0x00000000       0xa4 ..\obj\lcd.o
 .text.P_LCD_2x16_PinLo
                0x00000000       0x3c ..\obj\lcd.o
 .text.P_LCD_2x16_PinHi
                0x00000000       0x3c ..\obj\lcd.o
 .text.P_LCD_2x16_Clk
                0x00000000       0x24 ..\obj\lcd.o
 .text.P_LCD_2x16_InitSequenz
                0x00000000       0x68 ..\obj\lcd.o
 .text.P_LCD_2x16_Cmd
                0x00000000       0xdc ..\obj\lcd.o
 .text.P_LCD_2x16_Data
                0x00000000       0xdc ..\obj\lcd.o
 .text.lcd_gotoxy
                0x00000000       0x48 ..\obj\lcd.o
 .text.P_LCD_2x16_Delay
                0x00000000       0x20 ..\obj\lcd.o
 .debug_info    0x00000000      0x69d ..\obj\lcd.o
 .debug_abbrev  0x00000000      0x1e2 ..\obj\lcd.o
 .debug_aranges
                0x00000000       0x80 ..\obj\lcd.o
 .debug_ranges  0x00000000       0x70 ..\obj\lcd.o
 .debug_line    0x00000000      0x4d2 ..\obj\lcd.o
 .debug_str     0x00000000      0x596 ..\obj\lcd.o
 .comment       0x00000000       0x71 ..\obj\lcd.o
 .ARM.attributes
                0x00000000       0x33 ..\obj\lcd.o
 .debug_frame   0x00000000      0x198 ..\obj\lcd.o
 .text          0x00000000        0x0 ..\obj\stm32f4xx_i2c.o
 .data          0x00000000        0x0 ..\obj\stm32f4xx_i2c.o
 .bss           0x00000000        0x0 ..\obj\stm32f4xx_i2c.o
 .text.I2C_StructInit
                0x00000000       0x3c ..\obj\stm32f4xx_i2c.o
 .text.I2C_OwnAddress2Config
                0x00000000       0x40 ..\obj\stm32f4xx_i2c.o
 .text.I2C_DualAddressCmd
                0x00000000       0x40 ..\obj\stm32f4xx_i2c.o
 .text.I2C_GeneralCallCmd
                0x00000000       0x40 ..\obj\stm32f4xx_i2c.o
 .text.I2C_StretchClockCmd
                0x00000000       0x40 ..\obj\stm32f4xx_i2c.o
 .text.I2C_FastModeDutyCycleConfig
                0x00000000       0x40 ..\obj\stm32f4xx_i2c.o
 .text.I2C_NACKPositionConfig
                0x00000000       0x40 ..\obj\stm32f4xx_i2c.o
 .text.I2C_SMBusAlertConfig
                0x00000000       0x40 ..\obj\stm32f4xx_i2c.o
 .text.I2C_ARPCmd
                0x00000000       0x40 ..\obj\stm32f4xx_i2c.o
 .text.I2C_TransmitPEC
                0x00000000       0x40 ..\obj\stm32f4xx_i2c.o
 .text.I2C_PECPositionConfig
                0x00000000       0x40 ..\obj\stm32f4xx_i2c.o
 .text.I2C_CalculatePEC
                0x00000000       0x40 ..\obj\stm32f4xx_i2c.o
 .text.I2C_GetPEC
                0x00000000       0x20 ..\obj\stm32f4xx_i2c.o
 .text.I2C_DMACmd
                0x00000000       0x40 ..\obj\stm32f4xx_i2c.o
 .text.I2C_DMALastTransferCmd
                0x00000000       0x40 ..\obj\stm32f4xx_i2c.o
 .text.I2C_ReadRegister
                0x00000000       0x30 ..\obj\stm32f4xx_i2c.o
 .text.I2C_ITConfig
                0x00000000       0x48 ..\obj\stm32f4xx_i2c.o
 .text.I2C_CheckEvent
                0x00000000       0x60 ..\obj\stm32f4xx_i2c.o
 .text.I2C_GetLastEvent
                0x00000000       0x44 ..\obj\stm32f4xx_i2c.o
 .text.I2C_ClearFlag
                0x00000000       0x2c ..\obj\stm32f4xx_i2c.o
 .text.I2C_GetITStatus
                0x00000000       0x5c ..\obj\stm32f4xx_i2c.o
 .text.I2C_ClearITPendingBit
                0x00000000       0x2c ..\obj\stm32f4xx_i2c.o
 .text          0x00000000        0x0 ..\obj\misc.o
 .data          0x00000000        0x0 ..\obj\misc.o
 .bss           0x00000000        0x0 ..\obj\misc.o
 .text.NVIC_PriorityGroupConfig
                0x00000000       0x24 ..\obj\misc.o
 .text.NVIC_SetVectorTable
                0x00000000       0x2c ..\obj\misc.o
 .text.NVIC_SystemLPConfig
                0x00000000       0x40 ..\obj\misc.o
 .text.SysTick_CLKSourceConfig
                0x00000000       0x38 ..\obj\misc.o
 .text          0x00000000        0x0 ..\obj\i2c2.o
 .text.i2c2ReadMultiByte
                0x00000000      0x258 ..\obj\i2c2.o
 .text.i2c2WriteMultiByte
                0x00000000      0x1ac ..\obj\i2c2.o
 .text.i2c2WriteCMD
                0x00000000      0x134 ..\obj\i2c2.o
 .text.i2c2ReadByte16
                0x00000000      0x24c ..\obj\i2c2.o
 .text.i2c2WriteByte16
                0x00000000      0x1b8 ..\obj\i2c2.o
 .text.i2c2Delay
                0x00000000       0x20 ..\obj\i2c2.o
 .text          0x00000000        0x0 ..\obj\tm_stm32f4_gpio.o
 .data          0x00000000        0x0 ..\obj\tm_stm32f4_gpio.o
 .text.TM_GPIO_DeInit
                0x00000000       0x7c ..\obj\tm_stm32f4_gpio.o
 .text.TM_GPIO_SetPinAsInput
                0x00000000       0x50 ..\obj\tm_stm32f4_gpio.o
 .text.TM_GPIO_SetPinAsOutput
                0x00000000       0x5c ..\obj\tm_stm32f4_gpio.o
 .text.TM_GPIO_SetPinAsAnalog
                0x00000000       0x4c ..\obj\tm_stm32f4_gpio.o
 .text.TM_GPIO_SetPinAsAlternate
                0x00000000       0x5c ..\obj\tm_stm32f4_gpio.o
 .text.TM_GPIO_SetPullResistor
                0x00000000       0x60 ..\obj\tm_stm32f4_gpio.o
 .text.TM_GPIO_Lock
                0x00000000       0x38 ..\obj\tm_stm32f4_gpio.o
 .text.TM_GPIO_GetPinSource
                0x00000000       0x30 ..\obj\tm_stm32f4_gpio.o
 .text.TM_GPIO_INT_DisableClock
                0x00000000       0x2c ..\obj\tm_stm32f4_gpio.o
 .text.TM_GPIO_GetUsedPins
                0x00000000       0x24 ..\obj\tm_stm32f4_gpio.o
 .text.TM_GPIO_GetFreePins
                0x00000000       0x28 ..\obj\tm_stm32f4_gpio.o
 .text          0x00000000        0x0 ..\obj\tm_stm32f4_timer_properties.o
 .data          0x00000000        0x0 ..\obj\tm_stm32f4_timer_properties.o
 .bss           0x00000000        0x0 ..\obj\tm_stm32f4_timer_properties.o
 .text.TM_TIMER_PROPERTIES_DisableClock
                0x00000000      0x168 ..\obj\tm_stm32f4_timer_properties.o
 .text          0x00000000        0x0 ..\obj\stm32f4xx_tim.o
 .data          0x00000000        0x0 ..\obj\stm32f4xx_tim.o
 .bss           0x00000000        0x0 ..\obj\stm32f4xx_tim.o
 .text.TIM_DeInit
                0x00000000      0x1bc ..\obj\stm32f4xx_tim.o
 .text.TIM_TimeBaseStructInit
                0x00000000       0x34 ..\obj\stm32f4xx_tim.o
 .text.TIM_PrescalerConfig
                0x00000000       0x28 ..\obj\stm32f4xx_tim.o
 .text.TIM_CounterModeConfig
                0x00000000       0x38 ..\obj\stm32f4xx_tim.o
 .text.TIM_SetCounter
                0x00000000       0x1c ..\obj\stm32f4xx_tim.o
 .text.TIM_SetAutoreload
                0x00000000       0x1c ..\obj\stm32f4xx_tim.o
 .text.TIM_GetCounter
                0x00000000       0x18 ..\obj\stm32f4xx_tim.o
 .text.TIM_GetPrescaler
                0x00000000       0x1c ..\obj\stm32f4xx_tim.o
 .text.TIM_UpdateDisableConfig
                0x00000000       0x40 ..\obj\stm32f4xx_tim.o
 .text.TIM_UpdateRequestConfig
                0x00000000       0x40 ..\obj\stm32f4xx_tim.o
 .text.TIM_SelectOnePulseMode
                0x00000000       0x38 ..\obj\stm32f4xx_tim.o
 .text.TIM_SetClockDivision
                0x00000000       0x38 ..\obj\stm32f4xx_tim.o
 .text.TIM_Cmd  0x00000000       0x40 ..\obj\stm32f4xx_tim.o
 .text.TIM_OCStructInit
                0x00000000       0x44 ..\obj\stm32f4xx_tim.o
 .text.TIM_SelectOCxM
                0x00000000       0xac ..\obj\stm32f4xx_tim.o
 .text.TIM_SetCompare1
                0x00000000       0x1c ..\obj\stm32f4xx_tim.o
 .text.TIM_SetCompare2
                0x00000000       0x1c ..\obj\stm32f4xx_tim.o
 .text.TIM_SetCompare3
                0x00000000       0x1c ..\obj\stm32f4xx_tim.o
 .text.TIM_SetCompare4
                0x00000000       0x1c ..\obj\stm32f4xx_tim.o
 .text.TIM_ForcedOC1Config
                0x00000000       0x38 ..\obj\stm32f4xx_tim.o
 .text.TIM_ForcedOC2Config
                0x00000000       0x3c ..\obj\stm32f4xx_tim.o
 .text.TIM_ForcedOC3Config
                0x00000000       0x38 ..\obj\stm32f4xx_tim.o
 .text.TIM_ForcedOC4Config
                0x00000000       0x3c ..\obj\stm32f4xx_tim.o
 .text.TIM_OC1FastConfig
                0x00000000       0x38 ..\obj\stm32f4xx_tim.o
 .text.TIM_OC2FastConfig
                0x00000000       0x3c ..\obj\stm32f4xx_tim.o
 .text.TIM_OC3FastConfig
                0x00000000       0x38 ..\obj\stm32f4xx_tim.o
 .text.TIM_OC4FastConfig
                0x00000000       0x3c ..\obj\stm32f4xx_tim.o
 .text.TIM_ClearOC1Ref
                0x00000000       0x38 ..\obj\stm32f4xx_tim.o
 .text.TIM_ClearOC2Ref
                0x00000000       0x3c ..\obj\stm32f4xx_tim.o
 .text.TIM_ClearOC3Ref
                0x00000000       0x38 ..\obj\stm32f4xx_tim.o
 .text.TIM_ClearOC4Ref
                0x00000000       0x3c ..\obj\stm32f4xx_tim.o
 .text.TIM_OC1PolarityConfig
                0x00000000       0x38 ..\obj\stm32f4xx_tim.o
 .text.TIM_OC1NPolarityConfig
                0x00000000       0x38 ..\obj\stm32f4xx_tim.o
 .text.TIM_OC2PolarityConfig
                0x00000000       0x3c ..\obj\stm32f4xx_tim.o
 .text.TIM_OC2NPolarityConfig
                0x00000000       0x3c ..\obj\stm32f4xx_tim.o
 .text.TIM_OC3PolarityConfig
                0x00000000       0x3c ..\obj\stm32f4xx_tim.o
 .text.TIM_OC3NPolarityConfig
                0x00000000       0x3c ..\obj\stm32f4xx_tim.o
 .text.TIM_OC4PolarityConfig
                0x00000000       0x3c ..\obj\stm32f4xx_tim.o
 .text.TIM_CCxCmd
                0x00000000       0x54 ..\obj\stm32f4xx_tim.o
 .text.TIM_CCxNCmd
                0x00000000       0x54 ..\obj\stm32f4xx_tim.o
 .text.TIM_ICInit
                0x00000000       0xa8 ..\obj\stm32f4xx_tim.o
 .text.TIM_ICStructInit
                0x00000000       0x30 ..\obj\stm32f4xx_tim.o
 .text.TIM_PWMIConfig
                0x00000000       0xb8 ..\obj\stm32f4xx_tim.o
 .text.TIM_GetCapture1
                0x00000000       0x18 ..\obj\stm32f4xx_tim.o
 .text.TIM_GetCapture2
                0x00000000       0x18 ..\obj\stm32f4xx_tim.o
 .text.TIM_GetCapture3
                0x00000000       0x18 ..\obj\stm32f4xx_tim.o
 .text.TIM_GetCapture4
                0x00000000       0x18 ..\obj\stm32f4xx_tim.o
 .text.TIM_SetIC1Prescaler
                0x00000000       0x38 ..\obj\stm32f4xx_tim.o
 .text.TIM_SetIC2Prescaler
                0x00000000       0x3c ..\obj\stm32f4xx_tim.o
 .text.TIM_SetIC3Prescaler
                0x00000000       0x38 ..\obj\stm32f4xx_tim.o
 .text.TIM_SetIC4Prescaler
                0x00000000       0x3c ..\obj\stm32f4xx_tim.o
 .text.TIM_BDTRConfig
                0x00000000       0x50 ..\obj\stm32f4xx_tim.o
 .text.TIM_BDTRStructInit
                0x00000000       0x3c ..\obj\stm32f4xx_tim.o
 .text.TIM_SelectCOM
                0x00000000       0x40 ..\obj\stm32f4xx_tim.o
 .text.TIM_CCPreloadControl
                0x00000000       0x40 ..\obj\stm32f4xx_tim.o
 .text.TIM_ITConfig
                0x00000000       0x48 ..\obj\stm32f4xx_tim.o
 .text.TIM_GenerateEvent
                0x00000000       0x1c ..\obj\stm32f4xx_tim.o
 .text.TIM_GetFlagStatus
                0x00000000       0x38 ..\obj\stm32f4xx_tim.o
 .text.TIM_ClearFlag
                0x00000000       0x20 ..\obj\stm32f4xx_tim.o
 .text.TIM_GetITStatus
                0x00000000       0x54 ..\obj\stm32f4xx_tim.o
 .text.TIM_ClearITPendingBit
                0x00000000       0x20 ..\obj\stm32f4xx_tim.o
 .text.TIM_DMAConfig
                0x00000000       0x28 ..\obj\stm32f4xx_tim.o
 .text.TIM_DMACmd
                0x00000000       0x48 ..\obj\stm32f4xx_tim.o
 .text.TIM_SelectCCDMA
                0x00000000       0x40 ..\obj\stm32f4xx_tim.o
 .text.TIM_InternalClockConfig
                0x00000000       0x24 ..\obj\stm32f4xx_tim.o
 .text.TIM_ITRxExternalClockConfig
                0x00000000       0x2c ..\obj\stm32f4xx_tim.o
 .text.TIM_TIxExternalClockConfig
                0x00000000       0x54 ..\obj\stm32f4xx_tim.o
 .text.TIM_ETRClockMode1Config
                0x00000000       0x50 ..\obj\stm32f4xx_tim.o
 .text.TIM_ETRClockMode2Config
                0x00000000       0x30 ..\obj\stm32f4xx_tim.o
 .text.TIM_SelectInputTrigger
                0x00000000       0x38 ..\obj\stm32f4xx_tim.o
 .text.TIM_SelectOutputTrigger
                0x00000000       0x38 ..\obj\stm32f4xx_tim.o
 .text.TIM_SelectSlaveMode
                0x00000000       0x38 ..\obj\stm32f4xx_tim.o
 .text.TIM_SelectMasterSlaveMode
                0x00000000       0x38 ..\obj\stm32f4xx_tim.o
 .text.TIM_ETRConfig
                0x00000000       0x48 ..\obj\stm32f4xx_tim.o
 .text.TIM_EncoderInterfaceConfig
                0x00000000       0x8c ..\obj\stm32f4xx_tim.o
 .text.TIM_SelectHallSensor
                0x00000000       0x40 ..\obj\stm32f4xx_tim.o
 .text.TIM_RemapConfig
                0x00000000       0x20 ..\obj\stm32f4xx_tim.o
 .text.TI1_Config
                0x00000000       0x78 ..\obj\stm32f4xx_tim.o
 .text.TI2_Config
                0x00000000       0x8c ..\obj\stm32f4xx_tim.o
 .text.TI3_Config
                0x00000000       0x84 ..\obj\stm32f4xx_tim.o
 .text.TI4_Config
                0x00000000       0x90 ..\obj\stm32f4xx_tim.o
 .text          0x00000000        0x0 ..\obj\adc1.o
 .bss           0x00000000        0x0 ..\obj\adc1.o
 .text.adc1ReadMean
                0x00000000      0x154 ..\obj\adc1.o
 .data          0x00000000        0x0 c:/program files (x86)/gnu tools arm embedded/4.8 2014q2/bin/../lib/gcc/arm-none-eabi/4.8.4/armv7e-m\libgcc.a(_arm_addsubdf3.o)
 .bss           0x00000000        0x0 c:/program files (x86)/gnu tools arm embedded/4.8 2014q2/bin/../lib/gcc/arm-none-eabi/4.8.4/armv7e-m\libgcc.a(_arm_addsubdf3.o)
 .data          0x00000000        0x0 c:/program files (x86)/gnu tools arm embedded/4.8 2014q2/bin/../lib/gcc/arm-none-eabi/4.8.4/armv7e-m\libgcc.a(_arm_muldivdf3.o)
 .bss           0x00000000        0x0 c:/program files (x86)/gnu tools arm embedded/4.8 2014q2/bin/../lib/gcc/arm-none-eabi/4.8.4/armv7e-m\libgcc.a(_arm_muldivdf3.o)
 .data          0x00000000        0x0 c:/program files (x86)/gnu tools arm embedded/4.8 2014q2/bin/../lib/gcc/arm-none-eabi/4.8.4/armv7e-m\libgcc.a(_arm_cmpdf2.o)
 .bss           0x00000000        0x0 c:/program files (x86)/gnu tools arm embedded/4.8 2014q2/bin/../lib/gcc/arm-none-eabi/4.8.4/armv7e-m\libgcc.a(_arm_cmpdf2.o)
 .data          0x00000000        0x0 c:/program files (x86)/gnu tools arm embedded/4.8 2014q2/bin/../lib/gcc/arm-none-eabi/4.8.4/armv7e-m\libgcc.a(_arm_fixunsdfsi.o)
 .bss           0x00000000        0x0 c:/program files (x86)/gnu tools arm embedded/4.8 2014q2/bin/../lib/gcc/arm-none-eabi/4.8.4/armv7e-m\libgcc.a(_arm_fixunsdfsi.o)
 .data          0x00000000        0x0 c:/program files (x86)/gnu tools arm embedded/4.8 2014q2/bin/../lib/gcc/arm-none-eabi/4.8.4/armv7e-m\libgcc.a(_arm_addsubsf3.o)
 .bss           0x00000000        0x0 c:/program files (x86)/gnu tools arm embedded/4.8 2014q2/bin/../lib/gcc/arm-none-eabi/4.8.4/armv7e-m\libgcc.a(_arm_addsubsf3.o)
 .data          0x00000000        0x0 c:/program files (x86)/gnu tools arm embedded/4.8 2014q2/bin/../lib/gcc/arm-none-eabi/4.8.4/armv7e-m\libgcc.a(_arm_muldivsf3.o)
 .bss           0x00000000        0x0 c:/program files (x86)/gnu tools arm embedded/4.8 2014q2/bin/../lib/gcc/arm-none-eabi/4.8.4/armv7e-m\libgcc.a(_arm_muldivsf3.o)
 .data          0x00000000        0x0 c:/program files (x86)/gnu tools arm embedded/4.8 2014q2/bin/../lib/gcc/arm-none-eabi/4.8.4/armv7e-m\libgcc.a(_arm_cmpsf2.o)
 .bss           0x00000000        0x0 c:/program files (x86)/gnu tools arm embedded/4.8 2014q2/bin/../lib/gcc/arm-none-eabi/4.8.4/armv7e-m\libgcc.a(_arm_cmpsf2.o)
 .data          0x00000000        0x0 c:/program files (x86)/gnu tools arm embedded/4.8 2014q2/bin/../lib/gcc/arm-none-eabi/4.8.4/armv7e-m\libgcc.a(_arm_fixunssfsi.o)
 .bss           0x00000000        0x0 c:/program files (x86)/gnu tools arm embedded/4.8 2014q2/bin/../lib/gcc/arm-none-eabi/4.8.4/armv7e-m\libgcc.a(_arm_fixunssfsi.o)
 .text          0x00000000        0x0 c:/program files (x86)/gnu tools arm embedded/4.8 2014q2/bin/../lib/gcc/arm-none-eabi/4.8.4/../../../../arm-none-eabi/lib/armv7e-m\libg.a(lib_a-malloc.o)
 .data          0x00000000        0x0 c:/program files (x86)/gnu tools arm embedded/4.8 2014q2/bin/../lib/gcc/arm-none-eabi/4.8.4/../../../../arm-none-eabi/lib/armv7e-m\libg.a(lib_a-malloc.o)
 .bss           0x00000000        0x0 c:/program files (x86)/gnu tools arm embedded/4.8 2014q2/bin/../lib/gcc/arm-none-eabi/4.8.4/../../../../arm-none-eabi/lib/armv7e-m\libg.a(lib_a-malloc.o)
 .text.malloc   0x00000000       0x10 c:/program files (x86)/gnu tools arm embedded/4.8 2014q2/bin/../lib/gcc/arm-none-eabi/4.8.4/../../../../arm-none-eabi/lib/armv7e-m\libg.a(lib_a-malloc.o)
 .text.free     0x00000000       0x10 c:/program files (x86)/gnu tools arm embedded/4.8 2014q2/bin/../lib/gcc/arm-none-eabi/4.8.4/../../../../arm-none-eabi/lib/armv7e-m\libg.a(lib_a-malloc.o)
 .ARM.attributes
                0x00000000       0x2e c:/program files (x86)/gnu tools arm embedded/4.8 2014q2/bin/../lib/gcc/arm-none-eabi/4.8.4/../../../../arm-none-eabi/lib/armv7e-m\libg.a(lib_a-malloc.o)
 .debug_frame   0x00000000       0x30 c:/program files (x86)/gnu tools arm embedded/4.8 2014q2/bin/../lib/gcc/arm-none-eabi/4.8.4/../../../../arm-none-eabi/lib/armv7e-m\libg.a(lib_a-malloc.o)
 .text          0x00000000        0x0 c:/program files (x86)/gnu tools arm embedded/4.8 2014q2/bin/../lib/gcc/arm-none-eabi/4.8.4/../../../../arm-none-eabi/lib/armv7e-m\libg.a(lib_a-mallocr.o)
 .data          0x00000000        0x0 c:/program files (x86)/gnu tools arm embedded/4.8 2014q2/bin/../lib/gcc/arm-none-eabi/4.8.4/../../../../arm-none-eabi/lib/armv7e-m\libg.a(lib_a-mallocr.o)
 .bss           0x00000000        0x0 c:/program files (x86)/gnu tools arm embedded/4.8 2014q2/bin/../lib/gcc/arm-none-eabi/4.8.4/../../../../arm-none-eabi/lib/armv7e-m\libg.a(lib_a-mallocr.o)
 .text._malloc_r
                0x00000000      0x538 c:/program files (x86)/gnu tools arm embedded/4.8 2014q2/bin/../lib/gcc/arm-none-eabi/4.8.4/../../../../arm-none-eabi/lib/armv7e-m\libg.a(lib_a-mallocr.o)
 .data.__malloc_av_
                0x00000000      0x408 c:/program files (x86)/gnu tools arm embedded/4.8 2014q2/bin/../lib/gcc/arm-none-eabi/4.8.4/../../../../arm-none-eabi/lib/armv7e-m\libg.a(lib_a-mallocr.o)
 .data.__malloc_trim_threshold
                0x00000000        0x4 c:/program files (x86)/gnu tools arm embedded/4.8 2014q2/bin/../lib/gcc/arm-none-eabi/4.8.4/../../../../arm-none-eabi/lib/armv7e-m\libg.a(lib_a-mallocr.o)
 .bss.__malloc_max_total_mem
                0x00000000        0x4 c:/program files (x86)/gnu tools arm embedded/4.8 2014q2/bin/../lib/gcc/arm-none-eabi/4.8.4/../../../../arm-none-eabi/lib/armv7e-m\libg.a(lib_a-mallocr.o)
 .bss.__malloc_max_sbrked_mem
                0x00000000        0x4 c:/program files (x86)/gnu tools arm embedded/4.8 2014q2/bin/../lib/gcc/arm-none-eabi/4.8.4/../../../../arm-none-eabi/lib/armv7e-m\libg.a(lib_a-mallocr.o)
 .bss.__malloc_top_pad
                0x00000000        0x4 c:/program files (x86)/gnu tools arm embedded/4.8 2014q2/bin/../lib/gcc/arm-none-eabi/4.8.4/../../../../arm-none-eabi/lib/armv7e-m\libg.a(lib_a-mallocr.o)
 .bss.__malloc_current_mallinfo
                0x00000000       0x28 c:/program files (x86)/gnu tools arm embedded/4.8 2014q2/bin/../lib/gcc/arm-none-eabi/4.8.4/../../../../arm-none-eabi/lib/armv7e-m\libg.a(lib_a-mallocr.o)
 .data.__malloc_sbrk_base
                0x00000000        0x4 c:/program files (x86)/gnu tools arm embedded/4.8 2014q2/bin/../lib/gcc/arm-none-eabi/4.8.4/../../../../arm-none-eabi/lib/armv7e-m\libg.a(lib_a-mallocr.o)
 .ARM.attributes
                0x00000000       0x2e c:/program files (x86)/gnu tools arm embedded/4.8 2014q2/bin/../lib/gcc/arm-none-eabi/4.8.4/../../../../arm-none-eabi/lib/armv7e-m\libg.a(lib_a-mallocr.o)
 .debug_frame   0x00000000       0x38 c:/program files (x86)/gnu tools arm embedded/4.8 2014q2/bin/../lib/gcc/arm-none-eabi/4.8.4/../../../../arm-none-eabi/lib/armv7e-m\libg.a(lib_a-mallocr.o)
 .text          0x00000000        0x0 c:/program files (x86)/gnu tools arm embedded/4.8 2014q2/bin/../lib/gcc/arm-none-eabi/4.8.4/../../../../arm-none-eabi/lib/armv7e-m\libg.a(lib_a-memset.o)
 .data          0x00000000        0x0 c:/program files (x86)/gnu tools arm embedded/4.8 2014q2/bin/../lib/gcc/arm-none-eabi/4.8.4/../../../../arm-none-eabi/lib/armv7e-m\libg.a(lib_a-memset.o)
 .bss           0x00000000        0x0 c:/program files (x86)/gnu tools arm embedded/4.8 2014q2/bin/../lib/gcc/arm-none-eabi/4.8.4/../../../../arm-none-eabi/lib/armv7e-m\libg.a(lib_a-memset.o)
 .text.memset   0x00000000       0x94 c:/program files (x86)/gnu tools arm embedded/4.8 2014q2/bin/../lib/gcc/arm-none-eabi/4.8.4/../../../../arm-none-eabi/lib/armv7e-m\libg.a(lib_a-memset.o)
 .ARM.attributes
                0x00000000       0x2e c:/program files (x86)/gnu tools arm embedded/4.8 2014q2/bin/../lib/gcc/arm-none-eabi/4.8.4/../../../../arm-none-eabi/lib/armv7e-m\libg.a(lib_a-memset.o)
 .debug_frame   0x00000000       0x2c c:/program files (x86)/gnu tools arm embedded/4.8 2014q2/bin/../lib/gcc/arm-none-eabi/4.8.4/../../../../arm-none-eabi/lib/armv7e-m\libg.a(lib_a-memset.o)
 .text          0x00000000        0x0 c:/program files (x86)/gnu tools arm embedded/4.8 2014q2/bin/../lib/gcc/arm-none-eabi/4.8.4/../../../../arm-none-eabi/lib/armv7e-m\libg.a(lib_a-mlock.o)
 .data          0x00000000        0x0 c:/program files (x86)/gnu tools arm embedded/4.8 2014q2/bin/../lib/gcc/arm-none-eabi/4.8.4/../../../../arm-none-eabi/lib/armv7e-m\libg.a(lib_a-mlock.o)
 .bss           0x00000000        0x0 c:/program files (x86)/gnu tools arm embedded/4.8 2014q2/bin/../lib/gcc/arm-none-eabi/4.8.4/../../../../arm-none-eabi/lib/armv7e-m\libg.a(lib_a-mlock.o)
 .text.__malloc_lock
                0x00000000        0x4 c:/program files (x86)/gnu tools arm embedded/4.8 2014q2/bin/../lib/gcc/arm-none-eabi/4.8.4/../../../../arm-none-eabi/lib/armv7e-m\libg.a(lib_a-mlock.o)
 .text.__malloc_unlock
                0x00000000        0x4 c:/program files (x86)/gnu tools arm embedded/4.8 2014q2/bin/../lib/gcc/arm-none-eabi/4.8.4/../../../../arm-none-eabi/lib/armv7e-m\libg.a(lib_a-mlock.o)
 .ARM.attributes
                0x00000000       0x2e c:/program files (x86)/gnu tools arm embedded/4.8 2014q2/bin/../lib/gcc/arm-none-eabi/4.8.4/../../../../arm-none-eabi/lib/armv7e-m\libg.a(lib_a-mlock.o)
 .debug_frame   0x00000000       0x30 c:/program files (x86)/gnu tools arm embedded/4.8 2014q2/bin/../lib/gcc/arm-none-eabi/4.8.4/../../../../arm-none-eabi/lib/armv7e-m\libg.a(lib_a-mlock.o)
 .text          0x00000000        0x0 c:/program files (x86)/gnu tools arm embedded/4.8 2014q2/bin/../lib/gcc/arm-none-eabi/4.8.4/../../../../arm-none-eabi/lib/armv7e-m\libg.a(lib_a-sbrkr.o)
 .data          0x00000000        0x0 c:/program files (x86)/gnu tools arm embedded/4.8 2014q2/bin/../lib/gcc/arm-none-eabi/4.8.4/../../../../arm-none-eabi/lib/armv7e-m\libg.a(lib_a-sbrkr.o)
 .bss           0x00000000        0x0 c:/program files (x86)/gnu tools arm embedded/4.8 2014q2/bin/../lib/gcc/arm-none-eabi/4.8.4/../../../../arm-none-eabi/lib/armv7e-m\libg.a(lib_a-sbrkr.o)
 .text._sbrk_r  0x00000000       0x24 c:/program files (x86)/gnu tools arm embedded/4.8 2014q2/bin/../lib/gcc/arm-none-eabi/4.8.4/../../../../arm-none-eabi/lib/armv7e-m\libg.a(lib_a-sbrkr.o)
 .ARM.attributes
                0x00000000       0x2e c:/program files (x86)/gnu tools arm embedded/4.8 2014q2/bin/../lib/gcc/arm-none-eabi/4.8.4/../../../../arm-none-eabi/lib/armv7e-m\libg.a(lib_a-sbrkr.o)
 .debug_frame   0x00000000       0x2c c:/program files (x86)/gnu tools arm embedded/4.8 2014q2/bin/../lib/gcc/arm-none-eabi/4.8.4/../../../../arm-none-eabi/lib/armv7e-m\libg.a(lib_a-sbrkr.o)
 .text          0x00000000        0x0 c:/program files (x86)/gnu tools arm embedded/4.8 2014q2/bin/../lib/gcc/arm-none-eabi/4.8.4/../../../../arm-none-eabi/lib/armv7e-m\libg.a(lib_a-freer.o)
 .data          0x00000000        0x0 c:/program files (x86)/gnu tools arm embedded/4.8 2014q2/bin/../lib/gcc/arm-none-eabi/4.8.4/../../../../arm-none-eabi/lib/armv7e-m\libg.a(lib_a-freer.o)
 .bss           0x00000000        0x0 c:/program files (x86)/gnu tools arm embedded/4.8 2014q2/bin/../lib/gcc/arm-none-eabi/4.8.4/../../../../arm-none-eabi/lib/armv7e-m\libg.a(lib_a-freer.o)
 .text._malloc_trim_r
                0x00000000       0x9c c:/program files (x86)/gnu tools arm embedded/4.8 2014q2/bin/../lib/gcc/arm-none-eabi/4.8.4/../../../../arm-none-eabi/lib/armv7e-m\libg.a(lib_a-freer.o)
 .text._free_r  0x00000000      0x19c c:/program files (x86)/gnu tools arm embedded/4.8 2014q2/bin/../lib/gcc/arm-none-eabi/4.8.4/../../../../arm-none-eabi/lib/armv7e-m\libg.a(lib_a-freer.o)
 .ARM.attributes
                0x00000000       0x2e c:/program files (x86)/gnu tools arm embedded/4.8 2014q2/bin/../lib/gcc/arm-none-eabi/4.8.4/../../../../arm-none-eabi/lib/armv7e-m\libg.a(lib_a-freer.o)
 .debug_frame   0x00000000       0x50 c:/program files (x86)/gnu tools arm embedded/4.8 2014q2/bin/../lib/gcc/arm-none-eabi/4.8.4/../../../../arm-none-eabi/lib/armv7e-m\libg.a(lib_a-freer.o)
 .text          0x00000000        0x0 c:/program files (x86)/gnu tools arm embedded/4.8 2014q2/bin/../lib/gcc/arm-none-eabi/4.8.4/../../../../arm-none-eabi/lib/armv7e-m\libg.a(lib_a-reent.o)
 .data          0x00000000        0x0 c:/program files (x86)/gnu tools arm embedded/4.8 2014q2/bin/../lib/gcc/arm-none-eabi/4.8.4/../../../../arm-none-eabi/lib/armv7e-m\libg.a(lib_a-reent.o)
 .bss           0x00000000        0x0 c:/program files (x86)/gnu tools arm embedded/4.8 2014q2/bin/../lib/gcc/arm-none-eabi/4.8.4/../../../../arm-none-eabi/lib/armv7e-m\libg.a(lib_a-reent.o)
 .text.cleanup_glue
                0x00000000       0x1c c:/program files (x86)/gnu tools arm embedded/4.8 2014q2/bin/../lib/gcc/arm-none-eabi/4.8.4/../../../../arm-none-eabi/lib/armv7e-m\libg.a(lib_a-reent.o)
 .text._reclaim_reent
                0x00000000       0x90 c:/program files (x86)/gnu tools arm embedded/4.8 2014q2/bin/../lib/gcc/arm-none-eabi/4.8.4/../../../../arm-none-eabi/lib/armv7e-m\libg.a(lib_a-reent.o)
 .ARM.attributes
                0x00000000       0x2e c:/program files (x86)/gnu tools arm embedded/4.8 2014q2/bin/../lib/gcc/arm-none-eabi/4.8.4/../../../../arm-none-eabi/lib/armv7e-m\libg.a(lib_a-reent.o)
 .debug_frame   0x00000000       0x48 c:/program files (x86)/gnu tools arm embedded/4.8 2014q2/bin/../lib/gcc/arm-none-eabi/4.8.4/../../../../arm-none-eabi/lib/armv7e-m\libg.a(lib_a-reent.o)
 COMMON         0x00000000        0x4 c:/program files (x86)/gnu tools arm embedded/4.8 2014q2/bin/../lib/gcc/arm-none-eabi/4.8.4/../../../../arm-none-eabi/lib/armv7e-m\libg.a(lib_a-reent.o)

Memory Configuration

Name             Origin             Length             Attributes
rom              0x08000000         0x00040000         xr
ram              0x20000000         0x00010000         xrw
*default*        0x00000000         0xffffffff

Linker script and memory map

                0x20010000                _eram = 0x20010000

.text           0x08000000     0x4e8c
 *(.isr_vector)
 .isr_vector    0x08000000      0x188 ..\obj\startup_stm32f4xx.o
                0x08000000                g_pfnVectors
 *(.text*)
 .text.TM_SERVO_Init
                0x08000188       0x68 ..\obj\tm_stm32f4_servo.o
                0x08000188                TM_SERVO_Init
 .text.TM_SERVO_SetDegrees
                0x080001f0       0x88 ..\obj\tm_stm32f4_servo.o
                0x080001f0                TM_SERVO_SetDegrees
 .text.USART_Init
                0x08000278      0x174 ..\obj\stm32f4xx_usart.o
                0x08000278                USART_Init
 .text.USART_Cmd
                0x080003ec       0x40 ..\obj\stm32f4xx_usart.o
                0x080003ec                USART_Cmd
 .text.USART_OverSampling8Cmd
                0x0800042c       0x44 ..\obj\stm32f4xx_usart.o
                0x0800042c                USART_OverSampling8Cmd
 .text.USART_ReceiveData
                0x08000470       0x20 ..\obj\stm32f4xx_usart.o
                0x08000470                USART_ReceiveData
 .text.USART_ITConfig
                0x08000490       0x90 ..\obj\stm32f4xx_usart.o
                0x08000490                USART_ITConfig
 .text.USART_GetITStatus
                0x08000520       0xb0 ..\obj\stm32f4xx_usart.o
                0x08000520                USART_GetITStatus
 .text.uartInit
                0x080005d0      0x2c4 ..\obj\uart.o
                0x080005d0                uartInit
 .text.P_UART_Receive
                0x08000894       0xa8 ..\obj\uart.o
                0x08000894                P_UART_Receive
 .text.P_UART_RX_INT
                0x0800093c       0x50 ..\obj\uart.o
                0x0800093c                P_UART_RX_INT
 .text.USART3_IRQHandler
                0x0800098c       0x34 ..\obj\uart.o
                0x0800098c                USART3_IRQHandler
 .text.UART4_IRQHandler
                0x080009c0       0x34 ..\obj\uart.o
                0x080009c0                UART4_IRQHandler
 .text.UART5_IRQHandler
                0x080009f4       0x34 ..\obj\uart.o
                0x080009f4                UART5_IRQHandler
 .text.USART6_IRQHandler
                0x08000a28       0x34 ..\obj\uart.o
                0x08000a28                USART6_IRQHandler
 .text.Default_Reset_Handler
                0x08000a5c       0x5c ..\obj\startup_stm32f4xx.o
                0x08000a5c                Default_Reset_Handler
                0x08000a5c                Reset_Handler
 .text.Default_Handler
                0x08000ab8        0x8 ..\obj\startup_stm32f4xx.o
                0x08000ab8                RTC_Alarm_IRQHandler
                0x08000ab8                HASH_RNG_IRQHandler
                0x08000ab8                EXTI2_IRQHandler
                0x08000ab8                TIM8_CC_IRQHandler
                0x08000ab8                DebugMon_Handler
                0x08000ab8                TIM1_CC_IRQHandler
                0x08000ab8                DMA2_Stream5_IRQHandler
                0x08000ab8                HardFault_Handler
                0x08000ab8                DMA1_Stream5_IRQHandler
                0x08000ab8                PVD_IRQHandler
                0x08000ab8                SDIO_IRQHandler
                0x08000ab8                TAMP_STAMP_IRQHandler
                0x08000ab8                PendSV_Handler
                0x08000ab8                NMI_Handler
                0x08000ab8                CAN2_RX1_IRQHandler
                0x08000ab8                EXTI3_IRQHandler
                0x08000ab8                TIM8_TRG_COM_TIM14_IRQHandler
                0x08000ab8                TIM1_UP_TIM10_IRQHandler
                0x08000ab8                TIM8_UP_TIM13_IRQHandler
                0x08000ab8                I2C3_ER_IRQHandler
                0x08000ab8                EXTI0_IRQHandler
                0x08000ab8                I2C2_EV_IRQHandler
                0x08000ab8                DMA1_Stream2_IRQHandler
                0x08000ab8                CAN1_RX0_IRQHandler
                0x08000ab8                FPU_IRQHandler
                0x08000ab8                OTG_HS_WKUP_IRQHandler
                0x08000ab8                UsageFault_Handler
                0x08000ab8                CAN2_SCE_IRQHandler
                0x08000ab8                DMA2_Stream2_IRQHandler
                0x08000ab8                SPI1_IRQHandler
                0x08000ab8                TIM6_DAC_IRQHandler
                0x08000ab8                TIM1_BRK_TIM9_IRQHandler
                0x08000ab8                DCMI_IRQHandler
                0x08000ab8                CAN2_RX0_IRQHandler
                0x08000ab8                DMA2_Stream3_IRQHandler
                0x08000ab8                CRYP_IRQHandler
                0x08000ab8                CAN1_RX1_IRQHandler
                0x08000ab8                DMA2_Stream0_IRQHandler
                0x08000ab8                TIM4_IRQHandler
                0x08000ab8                I2C1_EV_IRQHandler
                0x08000ab8                DMA1_Stream6_IRQHandler
                0x08000ab8                DMA1_Stream1_IRQHandler
                0x08000ab8                TIM3_IRQHandler
                0x08000ab8                RCC_IRQHandler
                0x08000ab8                TIM8_BRK_TIM12_IRQHandler
                0x08000ab8                EXTI15_10_IRQHandler
                0x08000ab8                ADC_IRQHandler
                0x08000ab8                DMA1_Stream7_IRQHandler
                0x08000ab8                TIM7_IRQHandler
                0x08000ab8                CAN2_TX_IRQHandler
                0x08000ab8                TIM5_IRQHandler
                0x08000ab8                DMA2_Stream7_IRQHandler
                0x08000ab8                I2C3_EV_IRQHandler
                0x08000ab8                EXTI9_5_IRQHandler
                0x08000ab8                RTC_WKUP_IRQHandler
                0x08000ab8                ETH_WKUP_IRQHandler
                0x08000ab8                SPI2_IRQHandler
                0x08000ab8                OTG_HS_EP1_IN_IRQHandler
                0x08000ab8                MemManage_Handler
                0x08000ab8                DMA1_Stream0_IRQHandler
                0x08000ab8                CAN1_TX_IRQHandler
                0x08000ab8                SVC_Handler
                0x08000ab8                EXTI4_IRQHandler
                0x08000ab8                FSMC_IRQHandler
                0x08000ab8                ETH_IRQHandler
                0x08000ab8                OTG_HS_EP1_OUT_IRQHandler
                0x08000ab8                WWDG_IRQHandler
                0x08000ab8                TIM2_IRQHandler
                0x08000ab8                OTG_FS_WKUP_IRQHandler
                0x08000ab8                TIM1_TRG_COM_TIM11_IRQHandler
                0x08000ab8                OTG_HS_IRQHandler
                0x08000ab8                EXTI1_IRQHandler
                0x08000ab8                USART2_IRQHandler
                0x08000ab8                I2C2_ER_IRQHandler
                0x08000ab8                DMA2_Stream1_IRQHandler
                0x08000ab8                CAN1_SCE_IRQHandler
                0x08000ab8                FLASH_IRQHandler
                0x08000ab8                DMA2_Stream4_IRQHandler
                0x08000ab8                BusFault_Handler
                0x08000ab8                USART1_IRQHandler
                0x08000ab8                OTG_FS_IRQHandler
                0x08000ab8                SPI3_IRQHandler
                0x08000ab8                DMA1_Stream4_IRQHandler
                0x08000ab8                I2C1_ER_IRQHandler
                0x08000ab8                DMA2_Stream6_IRQHandler
                0x08000ab8                DMA1_Stream3_IRQHandler
 .text.Delay    0x08000ac0       0x5c ..\obj\main.o
 .text.main     0x08000b1c      0x248 ..\obj\main.o
                0x08000b1c                main
 .text.init     0x08000d64       0x3c ..\obj\main.o
                0x08000d64                init
 .text.readFotodiode
                0x08000da0       0x6c ..\obj\main.o
                0x08000da0                readFotodiode
 .text.RCC_GetClocksFreq
                0x08000e0c      0x154 ..\obj\stm32f4xx_rcc.o
                0x08000e0c                RCC_GetClocksFreq
 .text.RCC_AHB1PeriphClockCmd
                0x08000f60       0x3c ..\obj\stm32f4xx_rcc.o
                0x08000f60                RCC_AHB1PeriphClockCmd
 .text.RCC_APB1PeriphClockCmd
                0x08000f9c       0x3c ..\obj\stm32f4xx_rcc.o
                0x08000f9c                RCC_APB1PeriphClockCmd
 .text.RCC_APB2PeriphClockCmd
                0x08000fd8       0x3c ..\obj\stm32f4xx_rcc.o
                0x08000fd8                RCC_APB2PeriphClockCmd
 .text.RCC_APB1PeriphResetCmd
                0x08001014       0x3c ..\obj\stm32f4xx_rcc.o
                0x08001014                RCC_APB1PeriphResetCmd
 .text.ADC_Init
                0x08001050       0xa8 ..\obj\stm32f4xx_adc.o
                0x08001050                ADC_Init
 .text.ADC_CommonInit
                0x080010f8       0x50 ..\obj\stm32f4xx_adc.o
                0x080010f8                ADC_CommonInit
 .text.ADC_Cmd  0x08001148       0x38 ..\obj\stm32f4xx_adc.o
                0x08001148                ADC_Cmd
 .text.ADC_RegularChannelConfig
                0x08001180      0x188 ..\obj\stm32f4xx_adc.o
                0x08001180                ADC_RegularChannelConfig
 .text.ADC_SoftwareStartConv
                0x08001308       0x20 ..\obj\stm32f4xx_adc.o
                0x08001308                ADC_SoftwareStartConv
 .text.ADC_GetConversionValue
                0x08001328       0x1c ..\obj\stm32f4xx_adc.o
                0x08001328                ADC_GetConversionValue
 .text.ADC_GetFlagStatus
                0x08001344       0x34 ..\obj\stm32f4xx_adc.o
                0x08001344                ADC_GetFlagStatus
 .text.NVIC_SetPriority
                0x08001378       0x54 ..\obj\tm_stm32f4_delay.o
 .text.SysTick_Config
                0x080013cc       0x44 ..\obj\tm_stm32f4_delay.o
 .text.SysTick_Handler
                0x08001410       0xf0 ..\obj\tm_stm32f4_delay.o
                0x08001410                SysTick_Handler
 .text.TM_DELAY_Init
                0x08001500       0x4c ..\obj\tm_stm32f4_delay.o
                0x08001500                TM_DELAY_Init
 .text.TM_OneWire_Init
                0x0800154c       0x3c ..\obj\tm_stm32f4_onewire.o
                0x0800154c                TM_OneWire_Init
 .text.GPIO_Init
                0x08001588      0x11c ..\obj\stm32f4xx_gpio.o
                0x08001588                GPIO_Init
 .text.GPIO_PinAFConfig
                0x080016a4       0x8c ..\obj\stm32f4xx_gpio.o
                0x080016a4                GPIO_PinAFConfig
 .text.sonarRange
                0x08001730       0x1c ..\obj\srf_tpa.o
                0x08001730                sonarRange
 .text.sonarGet
                0x0800174c       0x6c ..\obj\srf_tpa.o
                0x0800174c                sonarGet
 .text.TM_PWM_InitTimer
                0x080017b8      0x150 ..\obj\tm_stm32f4_pwm.o
                0x080017b8                TM_PWM_InitTimer
 .text.TM_PWM_InitChannel
                0x08001908      0x180 ..\obj\tm_stm32f4_pwm.o
                0x08001908                TM_PWM_InitChannel
 .text.TM_PWM_SetChannel
                0x08001a88      0x1ac ..\obj\tm_stm32f4_pwm.o
                0x08001a88                TM_PWM_SetChannel
 .text.TM_PWM_SetChannelMicros
                0x08001c34       0x48 ..\obj\tm_stm32f4_pwm.o
                0x08001c34                TM_PWM_SetChannelMicros
 .text.TM_PWM_INT_InitTIM1Pins
                0x08001c7c      0x178 ..\obj\tm_stm32f4_pwm.o
                0x08001c7c                TM_PWM_INT_InitTIM1Pins
 .text.TM_PWM_INT_InitTIM2Pins
                0x08001df4      0x18c ..\obj\tm_stm32f4_pwm.o
                0x08001df4                TM_PWM_INT_InitTIM2Pins
 .text.TM_PWM_INT_InitTIM3Pins
                0x08001f80      0x1ac ..\obj\tm_stm32f4_pwm.o
                0x08001f80                TM_PWM_INT_InitTIM3Pins
 .text.TM_PWM_INT_InitTIM4Pins
                0x0800212c      0x174 ..\obj\tm_stm32f4_pwm.o
                0x0800212c                TM_PWM_INT_InitTIM4Pins
 .text.TM_PWM_INT_InitTIM5Pins
                0x080022a0      0x174 ..\obj\tm_stm32f4_pwm.o
                0x080022a0                TM_PWM_INT_InitTIM5Pins
 .text.TM_PWM_INT_InitTIM8Pins
                0x08002414      0x170 ..\obj\tm_stm32f4_pwm.o
                0x08002414                TM_PWM_INT_InitTIM8Pins
 .text.TM_PWM_INT_InitTIM9Pins
                0x08002584       0xc8 ..\obj\tm_stm32f4_pwm.o
                0x08002584                TM_PWM_INT_InitTIM9Pins
 .text.TM_PWM_INT_InitTIM10Pins
                0x0800264c       0x7c ..\obj\tm_stm32f4_pwm.o
                0x0800264c                TM_PWM_INT_InitTIM10Pins
 .text.TM_PWM_INT_InitTIM11Pins
                0x080026c8       0x7c ..\obj\tm_stm32f4_pwm.o
                0x080026c8                TM_PWM_INT_InitTIM11Pins
 .text.TM_PWM_INT_InitTIM12Pins
                0x08002744       0xcc ..\obj\tm_stm32f4_pwm.o
                0x08002744                TM_PWM_INT_InitTIM12Pins
 .text.TM_PWM_INT_InitTIM13Pins
                0x08002810       0x7c ..\obj\tm_stm32f4_pwm.o
                0x08002810                TM_PWM_INT_InitTIM13Pins
 .text.TM_PWM_INT_InitTIM14Pins
                0x0800288c       0x7c ..\obj\tm_stm32f4_pwm.o
                0x0800288c                TM_PWM_INT_InitTIM14Pins
 .text.I2C_DeInit
                0x08002908       0x74 ..\obj\stm32f4xx_i2c.o
                0x08002908                I2C_DeInit
 .text.I2C_Init
                0x0800297c      0x184 ..\obj\stm32f4xx_i2c.o
                0x0800297c                I2C_Init
 .text.I2C_Cmd  0x08002b00       0x40 ..\obj\stm32f4xx_i2c.o
                0x08002b00                I2C_Cmd
 .text.I2C_GenerateSTART
                0x08002b40       0x40 ..\obj\stm32f4xx_i2c.o
                0x08002b40                I2C_GenerateSTART
 .text.I2C_GenerateSTOP
                0x08002b80       0x40 ..\obj\stm32f4xx_i2c.o
                0x08002b80                I2C_GenerateSTOP
 .text.I2C_Send7bitAddress
                0x08002bc0       0x3c ..\obj\stm32f4xx_i2c.o
                0x08002bc0                I2C_Send7bitAddress
 .text.I2C_AcknowledgeConfig
                0x08002bfc       0x40 ..\obj\stm32f4xx_i2c.o
                0x08002bfc                I2C_AcknowledgeConfig
 .text.I2C_SoftwareResetCmd
                0x08002c3c       0x44 ..\obj\stm32f4xx_i2c.o
                0x08002c3c                I2C_SoftwareResetCmd
 .text.I2C_SendData
                0x08002c80       0x20 ..\obj\stm32f4xx_i2c.o
                0x08002c80                I2C_SendData
 .text.I2C_ReceiveData
                0x08002ca0       0x1c ..\obj\stm32f4xx_i2c.o
                0x08002ca0                I2C_ReceiveData
 .text.I2C_GetFlagStatus
                0x08002cbc       0x68 ..\obj\stm32f4xx_i2c.o
                0x08002cbc                I2C_GetFlagStatus
 .text.NVIC_Init
                0x08002d24       0xbc ..\obj\misc.o
                0x08002d24                NVIC_Init
 .text.i2c2Init
                0x08002de0       0xb8 ..\obj\i2c2.o
                0x08002de0                i2c2Init
 .text.i2c2ReadByte
                0x08002e98      0x1f8 ..\obj\i2c2.o
                0x08002e98                i2c2ReadByte
 .text.i2c2WriteByte
                0x08003090      0x174 ..\obj\i2c2.o
                0x08003090                i2c2WriteByte
 .text.P_I2C2_InitI2C
                0x08003204       0x44 ..\obj\i2c2.o
                0x08003204                P_I2C2_InitI2C
 .text.P_I2C2_timeout
                0x08003248       0x40 ..\obj\i2c2.o
                0x08003248                P_I2C2_timeout
 .text.TM_GPIO_Init
                0x08003288       0x38 ..\obj\tm_stm32f4_gpio.o
                0x08003288                TM_GPIO_Init
 .text.TM_GPIO_InitAlternate
                0x080032c0       0x98 ..\obj\tm_stm32f4_gpio.o
                0x080032c0                TM_GPIO_InitAlternate
 .text.TM_GPIO_GetPortSource
                0x08003358       0x24 ..\obj\tm_stm32f4_gpio.o
                0x08003358                TM_GPIO_GetPortSource
 .text.TM_GPIO_INT_EnableClock
                0x0800337c       0x2c ..\obj\tm_stm32f4_gpio.o
                0x0800337c                TM_GPIO_INT_EnableClock
 .text.TM_GPIO_INT_Init
                0x080033a8       0xfc ..\obj\tm_stm32f4_gpio.o
                0x080033a8                TM_GPIO_INT_Init
 .text.TM_TIMER_PROPERTIES_GetTimerProperties
                0x080034a4      0x100 ..\obj\tm_stm32f4_timer_properties.o
                0x080034a4                TM_TIMER_PROPERTIES_GetTimerProperties
 .text.TM_TIMER_PROPERTIES_GenerateDataForWorkingFrequency
                0x080035a4      0x128 ..\obj\tm_stm32f4_timer_properties.o
                0x080035a4                TM_TIMER_PROPERTIES_GenerateDataForWorkingFrequency
 .text.TM_TIMER_PROPERTIES_EnableClock
                0x080036cc      0x168 ..\obj\tm_stm32f4_timer_properties.o
                0x080036cc                TM_TIMER_PROPERTIES_EnableClock
 .text.TIM_TimeBaseInit
                0x08003834       0xd4 ..\obj\stm32f4xx_tim.o
                0x08003834                TIM_TimeBaseInit
 .text.TIM_ARRPreloadConfig
                0x08003908       0x40 ..\obj\stm32f4xx_tim.o
                0x08003908                TIM_ARRPreloadConfig
 .text.TIM_OC1Init
                0x08003948       0xf4 ..\obj\stm32f4xx_tim.o
                0x08003948                TIM_OC1Init
 .text.TIM_OC2Init
                0x08003a3c      0x110 ..\obj\stm32f4xx_tim.o
                0x08003a3c                TIM_OC2Init
 .text.TIM_OC3Init
                0x08003b4c      0x10c ..\obj\stm32f4xx_tim.o
                0x08003b4c                TIM_OC3Init
 .text.TIM_OC4Init
                0x08003c58       0xcc ..\obj\stm32f4xx_tim.o
                0x08003c58                TIM_OC4Init
 .text.TIM_OC1PreloadConfig
                0x08003d24       0x38 ..\obj\stm32f4xx_tim.o
                0x08003d24                TIM_OC1PreloadConfig
 .text.TIM_OC2PreloadConfig
                0x08003d5c       0x3c ..\obj\stm32f4xx_tim.o
                0x08003d5c                TIM_OC2PreloadConfig
 .text.TIM_OC3PreloadConfig
                0x08003d98       0x38 ..\obj\stm32f4xx_tim.o
                0x08003d98                TIM_OC3PreloadConfig
 .text.TIM_OC4PreloadConfig
                0x08003dd0       0x3c ..\obj\stm32f4xx_tim.o
                0x08003dd0                TIM_OC4PreloadConfig
 .text.TIM_CtrlPWMOutputs
                0x08003e0c       0x4c ..\obj\stm32f4xx_tim.o
                0x08003e0c                TIM_CtrlPWMOutputs
 .text.adc1Init
                0x08003e58       0x10 ..\obj\adc1.o
                0x08003e58                adc1Init
 .text.adc1Read
                0x08003e68       0x60 ..\obj\adc1.o
                0x08003e68                adc1Read
 .text.P_ADC1s_InitIO
                0x08003ec8       0x74 ..\obj\adc1.o
                0x08003ec8                P_ADC1s_InitIO
 .text.P_ADC1s_InitADC
                0x08003f3c       0x60 ..\obj\adc1.o
                0x08003f3c                P_ADC1s_InitADC
 .text          0x08003f9c      0x370 c:/program files (x86)/gnu tools arm embedded/4.8 2014q2/bin/../lib/gcc/arm-none-eabi/4.8.4/armv7e-m\libgcc.a(_arm_addsubdf3.o)
                0x08003f9c                __aeabi_drsub
                0x08003fa4                __aeabi_dsub
                0x08003fa4                __subdf3
                0x08003fa8                __aeabi_dadd
                0x08003fa8                __adddf3
                0x08004220                __floatunsidf
                0x08004220                __aeabi_ui2d
                0x08004240                __floatsidf
                0x08004240                __aeabi_i2d
                0x08004264                __aeabi_f2d
                0x08004264                __extendsfdf2
                0x080042a0                __floatundidf
                0x080042a0                __aeabi_ul2d
                0x080042b0                __floatdidf
                0x080042b0                __aeabi_l2d
 .text          0x0800430c      0x424 c:/program files (x86)/gnu tools arm embedded/4.8 2014q2/bin/../lib/gcc/arm-none-eabi/4.8.4/armv7e-m\libgcc.a(_arm_muldivdf3.o)
                0x0800430c                __aeabi_dmul
                0x0800430c                __muldf3
                0x08004560                __divdf3
                0x08004560                __aeabi_ddiv
 .text          0x08004730      0x110 c:/program files (x86)/gnu tools arm embedded/4.8 2014q2/bin/../lib/gcc/arm-none-eabi/4.8.4/armv7e-m\libgcc.a(_arm_cmpdf2.o)
                0x08004730                __gtdf2
                0x08004730                __gedf2
                0x08004738                __ltdf2
                0x08004738                __ledf2
                0x08004740                __nedf2
                0x08004740                __eqdf2
                0x08004740                __cmpdf2
                0x080047bc                __aeabi_cdrcmple
                0x080047cc                __aeabi_cdcmpeq
                0x080047cc                __aeabi_cdcmple
                0x080047dc                __aeabi_dcmpeq
                0x080047f0                __aeabi_dcmplt
                0x08004804                __aeabi_dcmple
                0x08004818                __aeabi_dcmpge
                0x0800482c                __aeabi_dcmpgt
 .text          0x08004840       0x40 c:/program files (x86)/gnu tools arm embedded/4.8 2014q2/bin/../lib/gcc/arm-none-eabi/4.8.4/armv7e-m\libgcc.a(_arm_fixunsdfsi.o)
                0x08004840                __aeabi_d2uiz
                0x08004840                __fixunsdfsi
 .text          0x08004880      0x21c c:/program files (x86)/gnu tools arm embedded/4.8 2014q2/bin/../lib/gcc/arm-none-eabi/4.8.4/armv7e-m\libgcc.a(_arm_addsubsf3.o)
                0x08004880                __aeabi_frsub
                0x08004888                __subsf3
                0x08004888                __aeabi_fsub
                0x0800488c                __aeabi_fadd
                0x0800488c                __addsf3
                0x080049ec                __aeabi_ui2f
                0x080049ec                __floatunsisf
                0x080049f4                __aeabi_i2f
                0x080049f4                __floatsisf
                0x08004a10                __aeabi_ul2f
                0x08004a10                __floatundisf
                0x08004a20                __aeabi_l2f
                0x08004a20                __floatdisf
 .text          0x08004a9c      0x2a0 c:/program files (x86)/gnu tools arm embedded/4.8 2014q2/bin/../lib/gcc/arm-none-eabi/4.8.4/armv7e-m\libgcc.a(_arm_muldivsf3.o)
                0x08004a9c                __mulsf3
                0x08004a9c                __aeabi_fmul
                0x08004c04                __aeabi_fdiv
                0x08004c04                __divsf3
 .text          0x08004d3c       0xec c:/program files (x86)/gnu tools arm embedded/4.8 2014q2/bin/../lib/gcc/arm-none-eabi/4.8.4/armv7e-m\libgcc.a(_arm_cmpsf2.o)
                0x08004d3c                __gesf2
                0x08004d3c                __gtsf2
                0x08004d44                __lesf2
                0x08004d44                __ltsf2
                0x08004d4c                __nesf2
                0x08004d4c                __eqsf2
                0x08004d4c                __cmpsf2
                0x08004dac                __aeabi_cfrcmple
                0x08004db4                __aeabi_cfcmpeq
                0x08004db4                __aeabi_cfcmple
                0x08004dc4                __aeabi_fcmpeq
                0x08004dd8                __aeabi_fcmplt
                0x08004dec                __aeabi_fcmple
                0x08004e00                __aeabi_fcmpge
                0x08004e14                __aeabi_fcmpgt
 .text          0x08004e28       0x40 c:/program files (x86)/gnu tools arm embedded/4.8 2014q2/bin/../lib/gcc/arm-none-eabi/4.8.4/armv7e-m\libgcc.a(_arm_fixunssfsi.o)
                0x08004e28                __fixunssfsi
                0x08004e28                __aeabi_f2uiz
 *(.init)
 *(.fini)
 *crtbegin.o(.ctors)
 *crtbegin?.o(.ctors)
 *(EXCLUDE_FILE(*crtend.o *crtend?.o) .ctors)
 *(SORT(.ctors.*))
 *(.ctors)
 *crtbegin.o(.dtors)
 *crtbegin?.o(.dtors)
 *(EXCLUDE_FILE(*crtend.o *crtend?.o) .dtors)
 *(SORT(.dtors.*))
 *(.dtors)
 *(.rodata*)
 .rodata        0x08004e68       0x24 ..\obj\main.o
 *(.eh_fram e*)

.glue_7         0x08004e8c        0x0
 .glue_7        0x00000000        0x0 linker stubs

.glue_7t        0x08004e8c        0x0
 .glue_7t       0x00000000        0x0 linker stubs

.vfp11_veneer   0x08004e8c        0x0
 .vfp11_veneer  0x00000000        0x0 linker stubs

.v4_bx          0x08004e8c        0x0
 .v4_bx         0x00000000        0x0 linker stubs

.iplt           0x08004e8c        0x0
 .iplt          0x00000000        0x0 ..\obj\stm32f4xx_syscfg.o

.rel.dyn        0x08004e8c        0x0
 .rel.iplt      0x00000000        0x0 ..\obj\stm32f4xx_syscfg.o

.ARM.extab
 *(.ARM.extab* .gnu.linkonce.armextab.*)
                0x08004e8c                __exidx_start = .

.ARM.exidx
 *(.ARM.exidx* .gnu.linkonce.armexidx.*)
                0x08004e8c                __exidx_end = .
                0x08004e8c                __etext = .
                0x08004e8c                _sidata = __etext

.data           0x20000000      0x138 load address 0x08004e8c
                0x20000000                __data_start__ = .
                0x20000000                _sdata = __data_start__
 *(vtable)
 *(.data*)
 .data          0x20000000       0x38 ..\obj\uart.o
                0x20000000                UART
 .data          0x20000038       0x18 ..\obj\main.o
                0x20000038                pwm
                0x2000003c                threshold
 .data          0x20000050       0x10 ..\obj\stm32f4xx_rcc.o
 .data          0x20000060       0x14 ..\obj\system_stm32f4xx.o
                0x20000060                SystemCoreClock
                0x20000064                AHBPrescTable
 .data          0x20000074        0x4 ..\obj\srf_tpa.o
                0x20000074                maxRange
                0x20000076                position
 .data          0x20000078       0x20 ..\obj\i2c2.o
                0x20000078                I2C2DEV
 .data          0x20000098       0xa0 ..\obj\adc1.o
                0x20000098                ADC1s
                0x20000138                . = ALIGN (0x4)
                0x20000138                PROVIDE (__preinit_array_start, .)
 *(.preinit_array)
                0x20000138                PROVIDE (__preinit_array_end, .)
                0x20000138                . = ALIGN (0x4)
                0x20000138                PROVIDE (__init_array_start, .)
 *(SORT(.init_array.*))
 *(.init_array)
                0x20000138                PROVIDE (__init_array_end, .)
                0x20000138                . = ALIGN (0x4)
                0x20000138                PROVIDE (__fini_array_start, .)
 *(SORT(.fini_array.*))
 *(.fini_array)
                0x20000138                PROVIDE (__fini_array_end, .)
 *(.jcr*)
                0x20000138                . = ALIGN (0x4)
                0x20000138                __data_end__ = .
                0x20000138                _edata = __data_end__

.igot.plt       0x20000138        0x0 load address 0x08004fc4
 .igot.plt      0x00000000        0x0 ..\obj\stm32f4xx_syscfg.o

.bss            0x20000138       0xfc load address 0x08004fc4
                0x20000138                . = ALIGN (0x4)
                0x20000138                __bss_start__ = .
                0x20000138                _sbss = __bss_start__
 *(.bss*)
 .bss           0x20000138       0x24 ..\obj\main.o
                0x20000144                value
                0x20000158                check
 .bss           0x2000015c       0x28 ..\obj\tm_stm32f4_delay.o
                0x2000015c                TM_TimingDelay
                0x20000160                TM_Time
                0x20000164                TM_Time2
                0x20000168                TM_DELAY_Initialized
 .bss           0x20000184        0x1 ..\obj\i2c2.o
 *fill*         0x20000185        0x3 
 .bss           0x20000188       0x18 ..\obj\tm_stm32f4_gpio.o
 *(COMMON)
 COMMON         0x200001a0       0x38 ..\obj\uart.o
                0x200001a0                UART_RX
 COMMON         0x200001d8       0x58 ..\obj\main.o
                0x200001d8                I2C2_DATA
                0x200001e4                temperature
                0x200001f8                servo1
 COMMON         0x20000230        0x4 ..\obj\tm_stm32f4_delay.o
                0x20000230                mult
                0x20000234                . = ALIGN (0x4)
                0x20000234                __bss_end__ = .
                0x20000234                _ebss = __bss_end__

.heap           0x20000234        0x0
                0x20000234                __end__ = .
                0x20000234                _end = __end__
                0x20000234                end = __end__
 *(.heap*)
                0x20000234                __HeapLimit = .

.co_stack       0x20000234      0x804 load address 0x080050c0
                0x20000238                . = ALIGN (0x8)
 *fill*         0x20000234        0x4 
 *(.co_stack .co_stack.*)
 .co_stack      0x20000238      0x800 ..\obj\startup_stm32f4xx.o
                0x20000238                pulStack
                0x20010000                __StackTop = (ORIGIN (ram) + 0x10000)
                0x2000f7fc                __StackLimit = (__StackTop - SIZEOF (.co_stack))
                0x20010000                PROVIDE (__stack, __StackTop)
                0x00000001                ASSERT ((__StackLimit >= __HeapLimit), region ram  overflowed with stack)
LOAD ..\obj\stm32f4xx_syscfg.o
LOAD ..\obj\tm_stm32f4_servo.o
LOAD ..\obj\stm32f4xx_usart.o
LOAD ..\obj\stm32f4xx_pwr.o
LOAD ..\obj\uart.o
LOAD ..\obj\startup_stm32f4xx.o
LOAD ..\obj\main.o
LOAD ..\obj\stm32f4xx_rcc.o
LOAD ..\obj\stm32f4xx_adc.o
LOAD ..\obj\printf.o
LOAD ..\obj\tm_stm32f4_delay.o
LOAD ..\obj\tm_stm32f4_onewire.o
LOAD ..\obj\stm32f4xx_gpio.o
LOAD ..\obj\system_stm32f4xx.o
LOAD ..\obj\syscalls.o
LOAD ..\obj\srf_tpa.o
LOAD ..\obj\tm_stm32f4_pwm.o
LOAD ..\obj\lcd.o
LOAD ..\obj\stm32f4xx_i2c.o
LOAD ..\obj\misc.o
LOAD ..\obj\i2c2.o
LOAD ..\obj\tm_stm32f4_gpio.o
LOAD ..\obj\tm_stm32f4_timer_properties.o
LOAD ..\obj\stm32f4xx_tim.o
LOAD ..\obj\adc1.o
START GROUP
LOAD c:/program files (x86)/gnu tools arm embedded/4.8 2014q2/bin/../lib/gcc/arm-none-eabi/4.8.4/armv7e-m\libgcc.a
LOAD c:/program files (x86)/gnu tools arm embedded/4.8 2014q2/bin/../lib/gcc/arm-none-eabi/4.8.4/../../../../arm-none-eabi/lib/armv7e-m\libg.a
LOAD c:/program files (x86)/gnu tools arm embedded/4.8 2014q2/bin/../lib/gcc/arm-none-eabi/4.8.4/../../../../arm-none-eabi/lib/armv7e-m\libc.a
END GROUP
OUTPUT(solar_panel_otomatis.elf elf32-littlearm)

.debug_info     0x00000000     0xb3c3
 .debug_info    0x00000000      0x530 ..\obj\tm_stm32f4_servo.o
 .debug_info    0x00000530      0x9c2 ..\obj\stm32f4xx_usart.o
 .debug_info    0x00000ef2      0xc2a ..\obj\uart.o
 .debug_info    0x00001b1c       0xed ..\obj\startup_stm32f4xx.o
 .debug_info    0x00001c09      0x7f5 ..\obj\main.o
 .debug_info    0x000023fe      0xc4d ..\obj\stm32f4xx_rcc.o
 .debug_info    0x0000304b      0xc38 ..\obj\stm32f4xx_adc.o
 .debug_info    0x00003c83      0xa16 ..\obj\tm_stm32f4_delay.o
 .debug_info    0x00004699      0x7bc ..\obj\tm_stm32f4_onewire.o
 .debug_info    0x00004e55      0x602 ..\obj\stm32f4xx_gpio.o
 .debug_info    0x00005457      0x592 ..\obj\system_stm32f4xx.o
 .debug_info    0x000059e9      0x4e9 ..\obj\srf_tpa.o
 .debug_info    0x00005ed2      0xb13 ..\obj\tm_stm32f4_pwm.o
 .debug_info    0x000069e5      0xaf4 ..\obj\stm32f4xx_i2c.o
 .debug_info    0x000074d9      0x53d ..\obj\misc.o
 .debug_info    0x00007a16      0x877 ..\obj\i2c2.o
 .debug_info    0x0000828d      0x81d ..\obj\tm_stm32f4_gpio.o
 .debug_info    0x00008aaa      0x60e ..\obj\tm_stm32f4_timer_properties.o
 .debug_info    0x000090b8     0x1c61 ..\obj\stm32f4xx_tim.o
 .debug_info    0x0000ad19      0x6aa ..\obj\adc1.o

.debug_abbrev   0x00000000     0x1f97
 .debug_abbrev  0x00000000      0x11b ..\obj\tm_stm32f4_servo.o
 .debug_abbrev  0x0000011b      0x155 ..\obj\stm32f4xx_usart.o
 .debug_abbrev  0x00000270      0x24c ..\obj\uart.o
 .debug_abbrev  0x000004bc       0xb0 ..\obj\startup_stm32f4xx.o
 .debug_abbrev  0x0000056c      0x1e6 ..\obj\main.o
 .debug_abbrev  0x00000752      0x1e3 ..\obj\stm32f4xx_rcc.o
 .debug_abbrev  0x00000935      0x196 ..\obj\stm32f4xx_adc.o
 .debug_abbrev  0x00000acb      0x2c4 ..\obj\tm_stm32f4_delay.o
 .debug_abbrev  0x00000d8f      0x22f ..\obj\tm_stm32f4_onewire.o
 .debug_abbrev  0x00000fbe      0x1a3 ..\obj\stm32f4xx_gpio.o
 .debug_abbrev  0x00001161      0x136 ..\obj\system_stm32f4xx.o
 .debug_abbrev  0x00001297      0x178 ..\obj\srf_tpa.o
 .debug_abbrev  0x0000140f      0x171 ..\obj\tm_stm32f4_pwm.o
 .debug_abbrev  0x00001580      0x164 ..\obj\stm32f4xx_i2c.o
 .debug_abbrev  0x000016e4      0x145 ..\obj\misc.o
 .debug_abbrev  0x00001829      0x1f5 ..\obj\i2c2.o
 .debug_abbrev  0x00001a1e      0x14f ..\obj\tm_stm32f4_gpio.o
 .debug_abbrev  0x00001b6d      0x128 ..\obj\tm_stm32f4_timer_properties.o
 .debug_abbrev  0x00001c95      0x187 ..\obj\stm32f4xx_tim.o
 .debug_abbrev  0x00001e1c      0x17b ..\obj\adc1.o

.debug_aranges  0x00000000      0xdb0
 .debug_aranges
                0x00000000       0x30 ..\obj\tm_stm32f4_servo.o
 .debug_aranges
                0x00000030      0x100 ..\obj\stm32f4xx_usart.o
 .debug_aranges
                0x00000130       0x88 ..\obj\uart.o
 .debug_aranges
                0x000001b8       0x28 ..\obj\startup_stm32f4xx.o
 .debug_aranges
                0x000001e0       0x38 ..\obj\main.o
 .debug_aranges
                0x00000218      0x178 ..\obj\stm32f4xx_rcc.o
 .debug_aranges
                0x00000390      0x148 ..\obj\stm32f4xx_adc.o
 .debug_aranges
                0x000004d8       0x80 ..\obj\tm_stm32f4_delay.o
 .debug_aranges
                0x00000558       0xb0 ..\obj\tm_stm32f4_onewire.o
 .debug_aranges
                0x00000608       0x88 ..\obj\stm32f4xx_gpio.o
 .debug_aranges
                0x00000690       0x30 ..\obj\system_stm32f4xx.o
 .debug_aranges
                0x000006c0       0x78 ..\obj\srf_tpa.o
 .debug_aranges
                0x00000738       0xa0 ..\obj\tm_stm32f4_pwm.o
 .debug_aranges
                0x000007d8      0x120 ..\obj\stm32f4xx_i2c.o
 .debug_aranges
                0x000008f8       0x40 ..\obj\misc.o
 .debug_aranges
                0x00000938       0x70 ..\obj\i2c2.o
 .debug_aranges
                0x000009a8       0x98 ..\obj\tm_stm32f4_gpio.o
 .debug_aranges
                0x00000a40       0x38 ..\obj\tm_stm32f4_timer_properties.o
 .debug_aranges
                0x00000a78      0x2f8 ..\obj\stm32f4xx_tim.o
 .debug_aranges
                0x00000d70       0x40 ..\obj\adc1.o

.debug_ranges   0x00000000      0xc70
 .debug_ranges  0x00000000       0x20 ..\obj\tm_stm32f4_servo.o
 .debug_ranges  0x00000020       0xf0 ..\obj\stm32f4xx_usart.o
 .debug_ranges  0x00000110       0x78 ..\obj\uart.o
 .debug_ranges  0x00000188       0x18 ..\obj\startup_stm32f4xx.o
 .debug_ranges  0x000001a0       0x28 ..\obj\main.o
 .debug_ranges  0x000001c8      0x168 ..\obj\stm32f4xx_rcc.o
 .debug_ranges  0x00000330      0x138 ..\obj\stm32f4xx_adc.o
 .debug_ranges  0x00000468       0x70 ..\obj\tm_stm32f4_delay.o
 .debug_ranges  0x000004d8       0xa0 ..\obj\tm_stm32f4_onewire.o
 .debug_ranges  0x00000578       0x78 ..\obj\stm32f4xx_gpio.o
 .debug_ranges  0x000005f0       0x20 ..\obj\system_stm32f4xx.o
 .debug_ranges  0x00000610       0x68 ..\obj\srf_tpa.o
 .debug_ranges  0x00000678       0x90 ..\obj\tm_stm32f4_pwm.o
 .debug_ranges  0x00000708      0x110 ..\obj\stm32f4xx_i2c.o
 .debug_ranges  0x00000818       0x30 ..\obj\misc.o
 .debug_ranges  0x00000848       0x60 ..\obj\i2c2.o
 .debug_ranges  0x000008a8       0x88 ..\obj\tm_stm32f4_gpio.o
 .debug_ranges  0x00000930       0x28 ..\obj\tm_stm32f4_timer_properties.o
 .debug_ranges  0x00000958      0x2e8 ..\obj\stm32f4xx_tim.o
 .debug_ranges  0x00000c40       0x30 ..\obj\adc1.o

.debug_line     0x00000000     0x55d2
 .debug_line    0x00000000      0x283 ..\obj\tm_stm32f4_servo.o
 .debug_line    0x00000283      0x4d5 ..\obj\stm32f4xx_usart.o
 .debug_line    0x00000758      0x47a ..\obj\uart.o
 .debug_line    0x00000bd2       0xaa ..\obj\startup_stm32f4xx.o
 .debug_line    0x00000c7c      0x338 ..\obj\main.o
 .debug_line    0x00000fb4      0x5cd ..\obj\stm32f4xx_rcc.o
 .debug_line    0x00001581      0x585 ..\obj\stm32f4xx_adc.o
 .debug_line    0x00001b06      0x3c6 ..\obj\tm_stm32f4_delay.o
 .debug_line    0x00001ecc      0x4f8 ..\obj\tm_stm32f4_onewire.o
 .debug_line    0x000023c4      0x372 ..\obj\stm32f4xx_gpio.o
 .debug_line    0x00002736      0x208 ..\obj\system_stm32f4xx.o
 .debug_line    0x0000293e      0x33c ..\obj\srf_tpa.o
 .debug_line    0x00002c7a      0x5aa ..\obj\tm_stm32f4_pwm.o
 .debug_line    0x00003224      0x50e ..\obj\stm32f4xx_i2c.o
 .debug_line    0x00003732      0x278 ..\obj\misc.o
 .debug_line    0x000039aa      0x75b ..\obj\i2c2.o
 .debug_line    0x00004105      0x3c9 ..\obj\tm_stm32f4_gpio.o
 .debug_line    0x000044ce      0x344 ..\obj\tm_stm32f4_timer_properties.o
 .debug_line    0x00004812      0xa98 ..\obj\stm32f4xx_tim.o
 .debug_line    0x000052aa      0x328 ..\obj\adc1.o

.debug_str      0x00000000     0x4378
 .debug_str     0x00000000      0x463 ..\obj\tm_stm32f4_servo.o
                                0x4f2 (size before relaxing)
 .debug_str     0x00000463      0x4cb ..\obj\stm32f4xx_usart.o
                                0x698 (size before relaxing)
 .debug_str     0x0000092e      0x8e8 ..\obj\uart.o
                                0xbde (size before relaxing)
 .debug_str     0x00001216       0xb9 ..\obj\startup_stm32f4xx.o
                                0x150 (size before relaxing)
 .debug_str     0x000012cf      0x12d ..\obj\main.o
                                0x527 (size before relaxing)
 .debug_str     0x000013fc      0x5ec ..\obj\stm32f4xx_rcc.o
                                0x859 (size before relaxing)
 .debug_str     0x000019e8      0x643 ..\obj\stm32f4xx_adc.o
                                0x80d (size before relaxing)
 .debug_str     0x0000202b      0x2d5 ..\obj\tm_stm32f4_delay.o
                                0x9cc (size before relaxing)
 .debug_str     0x00002300      0x36c ..\obj\tm_stm32f4_onewire.o
                                0x5a2 (size before relaxing)
 .debug_str     0x0000266c      0x18b ..\obj\stm32f4xx_gpio.o
                                0x4ac (size before relaxing)
 .debug_str     0x000027f7       0xbd ..\obj\system_stm32f4xx.o
                                0x3b3 (size before relaxing)
 .debug_str     0x000028b4      0x1da ..\obj\srf_tpa.o
                                0x377 (size before relaxing)
 .debug_str     0x00002a8e      0x36b ..\obj\tm_stm32f4_pwm.o
                                0x85d (size before relaxing)
 .debug_str     0x00002df9      0x3cb ..\obj\stm32f4xx_i2c.o
                                0x66e (size before relaxing)
 .debug_str     0x000031c4      0x115 ..\obj\misc.o
                                0x3d7 (size before relaxing)
 .debug_str     0x000032d9      0x12c ..\obj\i2c2.o
                                0x545 (size before relaxing)
 .debug_str     0x00003405      0x1ee ..\obj\tm_stm32f4_gpio.o
                                0x5b5 (size before relaxing)
 .debug_str     0x000035f3      0x1ed ..\obj\tm_stm32f4_timer_properties.o
                                0x593 (size before relaxing)
 .debug_str     0x000037e0      0xa02 ..\obj\stm32f4xx_tim.o
                                0xdd9 (size before relaxing)
 .debug_str     0x000041e2      0x196 ..\obj\adc1.o
                                0x5f8 (size before relaxing)

.comment        0x00000000       0x70
 .comment       0x00000000       0x70 ..\obj\tm_stm32f4_servo.o
                                 0x71 (size before relaxing)
 .comment       0x00000000       0x71 ..\obj\stm32f4xx_usart.o
 .comment       0x00000000       0x71 ..\obj\uart.o
 .comment       0x00000000       0x71 ..\obj\startup_stm32f4xx.o
 .comment       0x00000000       0x71 ..\obj\main.o
 .comment       0x00000000       0x71 ..\obj\stm32f4xx_rcc.o
 .comment       0x00000000       0x71 ..\obj\stm32f4xx_adc.o
 .comment       0x00000000       0x71 ..\obj\tm_stm32f4_delay.o
 .comment       0x00000000       0x71 ..\obj\tm_stm32f4_onewire.o
 .comment       0x00000000       0x71 ..\obj\stm32f4xx_gpio.o
 .comment       0x00000000       0x71 ..\obj\system_stm32f4xx.o
 .comment       0x00000000       0x71 ..\obj\srf_tpa.o
 .comment       0x00000000       0x71 ..\obj\tm_stm32f4_pwm.o
 .comment       0x00000000       0x71 ..\obj\stm32f4xx_i2c.o
 .comment       0x00000000       0x71 ..\obj\misc.o
 .comment       0x00000000       0x71 ..\obj\i2c2.o
 .comment       0x00000000       0x71 ..\obj\tm_stm32f4_gpio.o
 .comment       0x00000000       0x71 ..\obj\tm_stm32f4_timer_properties.o
 .comment       0x00000000       0x71 ..\obj\stm32f4xx_tim.o
 .comment       0x00000000       0x71 ..\obj\adc1.o

.ARM.attributes
                0x00000000       0x33
 .ARM.attributes
                0x00000000       0x33 ..\obj\tm_stm32f4_servo.o
 .ARM.attributes
                0x00000033       0x33 ..\obj\stm32f4xx_usart.o
 .ARM.attributes
                0x00000066       0x33 ..\obj\uart.o
 .ARM.attributes
                0x00000099       0x33 ..\obj\startup_stm32f4xx.o
 .ARM.attributes
                0x000000cc       0x33 ..\obj\main.o
 .ARM.attributes
                0x000000ff       0x33 ..\obj\stm32f4xx_rcc.o
 .ARM.attributes
                0x00000132       0x33 ..\obj\stm32f4xx_adc.o
 .ARM.attributes
                0x00000165       0x33 ..\obj\tm_stm32f4_delay.o
 .ARM.attributes
                0x00000198       0x33 ..\obj\tm_stm32f4_onewire.o
 .ARM.attributes
                0x000001cb       0x33 ..\obj\stm32f4xx_gpio.o
 .ARM.attributes
                0x000001fe       0x33 ..\obj\system_stm32f4xx.o
 .ARM.attributes
                0x00000231       0x33 ..\obj\srf_tpa.o
 .ARM.attributes
                0x00000264       0x33 ..\obj\tm_stm32f4_pwm.o
 .ARM.attributes
                0x00000297       0x33 ..\obj\stm32f4xx_i2c.o
 .ARM.attributes
                0x000002ca       0x33 ..\obj\misc.o
 .ARM.attributes
                0x000002fd       0x33 ..\obj\i2c2.o
 .ARM.attributes
                0x00000330       0x33 ..\obj\tm_stm32f4_gpio.o
 .ARM.attributes
                0x00000363       0x33 ..\obj\tm_stm32f4_timer_properties.o
 .ARM.attributes
                0x00000396       0x33 ..\obj\stm32f4xx_tim.o
 .ARM.attributes
                0x000003c9       0x33 ..\obj\adc1.o
 .ARM.attributes
                0x000003fc       0x1e c:/program files (x86)/gnu tools arm embedded/4.8 2014q2/bin/../lib/gcc/arm-none-eabi/4.8.4/armv7e-m\libgcc.a(_arm_addsubdf3.o)
 .ARM.attributes
                0x0000041a       0x1e c:/program files (x86)/gnu tools arm embedded/4.8 2014q2/bin/../lib/gcc/arm-none-eabi/4.8.4/armv7e-m\libgcc.a(_arm_muldivdf3.o)
 .ARM.attributes
                0x00000438       0x1e c:/program files (x86)/gnu tools arm embedded/4.8 2014q2/bin/../lib/gcc/arm-none-eabi/4.8.4/armv7e-m\libgcc.a(_arm_cmpdf2.o)
 .ARM.attributes
                0x00000456       0x1e c:/program files (x86)/gnu tools arm embedded/4.8 2014q2/bin/../lib/gcc/arm-none-eabi/4.8.4/armv7e-m\libgcc.a(_arm_fixunsdfsi.o)
 .ARM.attributes
                0x00000474       0x1e c:/program files (x86)/gnu tools arm embedded/4.8 2014q2/bin/../lib/gcc/arm-none-eabi/4.8.4/armv7e-m\libgcc.a(_arm_addsubsf3.o)
 .ARM.attributes
                0x00000492       0x1e c:/program files (x86)/gnu tools arm embedded/4.8 2014q2/bin/../lib/gcc/arm-none-eabi/4.8.4/armv7e-m\libgcc.a(_arm_muldivsf3.o)
 .ARM.attributes
                0x000004b0       0x1e c:/program files (x86)/gnu tools arm embedded/4.8 2014q2/bin/../lib/gcc/arm-none-eabi/4.8.4/armv7e-m\libgcc.a(_arm_cmpsf2.o)
 .ARM.attributes
                0x000004ce       0x1e c:/program files (x86)/gnu tools arm embedded/4.8 2014q2/bin/../lib/gcc/arm-none-eabi/4.8.4/armv7e-m\libgcc.a(_arm_fixunssfsi.o)

.debug_frame    0x00000000     0x2c0c
 .debug_frame   0x00000000       0x70 ..\obj\tm_stm32f4_servo.o
 .debug_frame   0x00000070      0x344 ..\obj\stm32f4xx_usart.o
 .debug_frame   0x000003b4      0x1c4 ..\obj\uart.o
 .debug_frame   0x00000578       0x48 ..\obj\startup_stm32f4xx.o
 .debug_frame   0x000005c0       0x8c ..\obj\main.o
 .debug_frame   0x0000064c      0x4d8 ..\obj\stm32f4xx_rcc.o
 .debug_frame   0x00000b24      0x434 ..\obj\stm32f4xx_adc.o
 .debug_frame   0x00000f58      0x184 ..\obj\tm_stm32f4_delay.o
 .debug_frame   0x000010dc      0x254 ..\obj\tm_stm32f4_onewire.o
 .debug_frame   0x00001330      0x19c ..\obj\stm32f4xx_gpio.o
 .debug_frame   0x000014cc       0x64 ..\obj\system_stm32f4xx.o
 .debug_frame   0x00001530      0x188 ..\obj\srf_tpa.o
 .debug_frame   0x000016b8      0x230 ..\obj\tm_stm32f4_pwm.o
 .debug_frame   0x000018e8      0x3b4 ..\obj\stm32f4xx_i2c.o
 .debug_frame   0x00001c9c       0x9c ..\obj\misc.o
 .debug_frame   0x00001d38      0x16c ..\obj\i2c2.o
 .debug_frame   0x00001ea4      0x1f8 ..\obj\tm_stm32f4_gpio.o
 .debug_frame   0x0000209c       0x88 ..\obj\tm_stm32f4_timer_properties.o
 .debug_frame   0x00002124      0xa3c ..\obj\stm32f4xx_tim.o
 .debug_frame   0x00002b60       0xac ..\obj\adc1.o
